[Created by: ./generate-chains.py]

Certificate chain where the leaf has a basic constraints extension with
CA=true

Certificate:
    Data:
        Version: 3 (0x2)
        Serial Number:
            08:bc:87:56:5b:c5:c0:7d:88:48:cc:cc:ca:97:dd:d6:7e:b8:ae:e7
        Signature Algorithm: sha256WithRSAEncryption
        Issuer: CN=Intermediate
        Validity
            Not Before: Oct  5 12:00:00 2021 GMT
            Not After : Oct  5 12:00:00 2022 GMT
        Subject: CN=Target
        Subject Public Key Info:
            Public Key Algorithm: rsaEncryption
                Public-Key: (2048 bit)
                Modulus:
                    00:be:16:a4:92:0f:af:f6:da:90:19:3e:26:29:a9:
                    04:35:24:67:db:93:b7:89:61:5c:c2:84:07:ff:db:
                    83:9a:1b:5c:9d:2f:ac:f6:20:87:74:fd:5a:f7:96:
                    da:aa:8b:77:d0:7d:cb:87:cf:96:37:2d:04:ef:19:
                    f7:09:6d:aa:73:74:16:b9:1c:f1:7b:15:9f:50:a9:
                    be:33:08:86:9f:88:9e:0c:b4:3b:2a:98:06:43:0f:
                    bb:14:ac:65:27:0f:c1:6c:58:d0:54:ce:62:89:ed:
                    03:99:3c:c7:f0:2e:ab:c5:f3:f0:5a:b6:91:68:6f:
                    aa:4b:37:e9:d8:dd:63:0f:6c:a2:0b:f7:72:0e:6f:
                    a3:ee:b9:7e:c7:4b:a4:cd:69:6c:b8:a3:66:14:14:
                    46:96:95:ca:60:64:af:58:93:0b:a2:d8:17:04:5c:
                    cd:ec:48:85:7a:4b:5b:c2:84:00:52:fa:8f:25:7b:
                    ce:0b:9b:14:a6:21:cc:48:f6:14:d5:c1:1b:3a:8b:
                    ba:ae:ef:15:55:0d:63:4d:f6:ea:f1:ca:1c:11:04:
                    3a:c9:f8:87:13:c2:8f:cb:f1:1d:18:79:2f:66:1d:
                    10:45:2d:4c:55:49:4c:3b:68:28:25:4a:8b:99:a9:
                    8d:27:66:86:71:4a:6d:f1:f8:fb:58:7e:db:3b:2d:
                    9e:8b
                Exponent: 65537 (0x10001)
        X509v3 extensions:
            X509v3 Subject Key Identifier: 
                F8:96:4F:23:BA:6B:B3:8F:4B:07:6E:24:86:07:55:F1:E9:8E:6E:02
            X509v3 Authority Key Identifier: 
                0D:33:4F:98:F6:3C:94:C8:20:5B:51:C9:BD:ED:09:3B:F0:B4:F3:D6
            Authority Information Access: 
                CA Issuers - URI:http://url-for-aia/Intermediate.cer
            X509v3 CRL Distribution Points: 
                Full Name:
                  URI:http://url-for-crl/Intermediate.crl
            X509v3 Key Usage: critical
                Digital Signature, Key Encipherment
            X509v3 Extended Key Usage: 
                TLS Web Server Authentication, TLS Web Client Authentication
            X509v3 Basic Constraints: critical
                CA:TRUE
    Signature Algorithm: sha256WithRSAEncryption
    Signature Value:
        2f:f3:3e:5f:9a:ed:43:1c:58:2e:15:aa:94:d8:d7:37:87:83:
        79:ff:a8:7d:d2:bf:3d:4d:3c:99:91:78:93:84:7b:ce:1e:07:
        55:f8:bd:5d:d1:e6:82:c4:a9:c0:6b:bf:e4:73:df:d0:b6:38:
        09:66:84:23:50:e3:16:37:15:88:89:78:08:31:7d:52:e0:56:
        a2:2d:ef:a6:75:5a:a3:44:c5:ae:23:a3:fc:92:81:b6:cf:3f:
        bc:ba:a1:4d:da:6d:0a:18:04:95:7a:4f:b3:74:e7:1b:19:97:
        fd:c3:32:c3:77:17:15:7a:d5:9b:6c:54:9c:16:1b:3f:37:3e:
        b9:ed:97:69:f9:da:3d:cf:e4:aa:2a:39:45:28:2b:2e:4e:d7:
        60:bb:fd:cb:3d:c2:19:85:e0:f6:1d:1e:bb:21:4c:f4:ee:a1:
        cf:dc:c9:24:53:cb:80:44:5f:d3:cf:83:09:90:17:1c:32:a8:
        c5:49:c1:c9:e6:28:f0:88:7d:36:d1:fe:0b:dc:a9:3f:79:ae:
        c9:89:4c:04:ec:49:ac:6d:58:24:67:20:d3:8f:29:c1:87:84:
        2f:69:4f:da:18:7d:f6:a0:88:92:ea:db:47:8d:f0:b3:a3:c9:
        15:6a:c8:e5:84:79:74:cd:e1:ee:fa:02:79:05:1f:5c:76:4a:
        71:ae:58:b8
-----BEGIN CERTIFICATE-----
MIIDsTCCApmgAwIBAgIUCLyHVlvFwH2ISMzMypfd1n64rucwDQYJKoZIhvcNAQEL
BQAwFzEVMBMGA1UEAwwMSW50ZXJtZWRpYXRlMB4XDTIxMTAwNTEyMDAwMFoXDTIy
MTAwNTEyMDAwMFowETEPMA0GA1UEAwwGVGFyZ2V0MIIBIjANBgkqhkiG9w0BAQEF
AAOCAQ8AMIIBCgKCAQEAvhakkg+v9tqQGT4mKakENSRn25O3iWFcwoQH/9uDmhtc
nS+s9iCHdP1a95baqot30H3Lh8+WNy0E7xn3CW2qc3QWuRzxexWfUKm+MwiGn4ie
DLQ7KpgGQw+7FKxlJw/BbFjQVM5iie0DmTzH8C6rxfPwWraRaG+qSzfp2N1jD2yi
C/dyDm+j7rl+x0ukzWlsuKNmFBRGlpXKYGSvWJMLotgXBFzN7EiFektbwoQAUvqP
JXvOC5sUpiHMSPYU1cEbOou6ru8VVQ1jTfbq8cocEQQ6yfiHE8KPy/EdGHkvZh0Q
RS1MVUlMO2goJUqLmamNJ2aGcUpt8fj7WH7bOy2eiwIDAQABo4H6MIH3MB0GA1Ud
DgQWBBT4lk8jumuzj0sHbiSGB1Xx6Y5uAjAfBgNVHSMEGDAWgBQNM0+Y9jyUyCBb
Ucm97Qk78LTz1jA/BggrBgEFBQcBAQQzMDEwLwYIKwYBBQUHMAKGI2h0dHA6Ly91
cmwtZm9yLWFpYS9JbnRlcm1lZGlhdGUuY2VyMDQGA1UdHwQtMCswKaAnoCWGI2h0
dHA6Ly91cmwtZm9yLWNybC9JbnRlcm1lZGlhdGUuY3JsMA4GA1UdDwEB/wQEAwIF
oDAdBgNVHSUEFjAUBggrBgEFBQcDAQYIKwYBBQUHAwIwDwYDVR0TAQH/BAUwAwEB
/zANBgkqhkiG9w0BAQsFAAOCAQEAL/M+X5rtQxxYLhWqlNjXN4eDef+ofdK/PU08
mZF4k4R7zh4HVfi9XdHmgsSpwGu/5HPf0LY4CWaEI1DjFjcViIl4CDF9UuBWoi3v
pnVao0TFriOj/JKBts8/vLqhTdptChgElXpPs3TnGxmX/cMyw3cXFXrVm2xUnBYb
Pzc+ue2XafnaPc/kqio5RSgrLk7XYLv9yz3CGYXg9h0euyFM9O6hz9zJJFPLgERf
08+DCZAXHDKoxUnByeYo8Ih9NtH+C9ypP3muyYlMBOxJrG1YJGcg048pwYeEL2lP
2hh99qCIkurbR43ws6PJFWrI5YR5dM3h7voCeQUfXHZKca5YuA==
-----END CERTIFICATE-----
