[Created by: generate-chains.py]

Certificate chain where the intermediate used MD5 to sign the target
certificate.

Certificate:
    Data:
        Version: 3 (0x2)
        Serial Number:
            2f:d9:89:cf:ff:cd:53:9f:5d:75:66:a5:53:93:03:4c:a0:64:cf:c3
        Signature Algorithm: sha1WithRSAEncryption
        Issuer: CN=Intermediate
        Validity
            Not Before: Oct  5 12:00:00 2021 GMT
            Not After : Oct  5 12:00:00 2022 GMT
        Subject: CN=Target
        Subject Public Key Info:
            Public Key Algorithm: rsaEncryption
                Public-Key: (2048 bit)
                Modulus:
                    00:a7:b8:bc:92:74:b1:bc:8f:5b:d5:3c:81:a6:8f:
                    d2:bf:7e:b8:f6:cd:49:5b:fd:18:ee:07:5c:32:cf:
                    f1:7f:51:06:98:53:91:16:4e:c0:2c:34:16:b8:12:
                    9d:10:5d:72:42:ec:00:e9:6b:4a:fb:17:bf:3a:35:
                    f9:a7:f5:50:df:80:bf:d9:6a:3d:74:93:4b:ce:13:
                    5f:57:3c:a1:60:55:10:e9:32:0f:84:ce:c2:d7:51:
                    be:16:b1:54:3f:86:5b:9e:9c:ec:5e:10:87:10:08:
                    ac:78:ee:da:97:5a:af:52:84:de:8d:2d:e4:91:30:
                    09:a1:e7:2b:8b:8b:b8:70:a0:43:0f:db:15:48:a5:
                    c2:94:af:f9:82:e4:86:57:d3:1c:e8:0c:71:11:06:
                    fe:f5:5e:ad:a6:26:d3:51:0b:f2:f0:5c:99:05:fe:
                    51:a1:d7:4a:e6:7f:f3:54:eb:82:07:f9:3a:83:bb:
                    c4:b5:41:07:df:76:95:9a:ed:04:34:4a:1f:bd:91:
                    19:78:6b:e0:24:4c:cc:ad:21:80:61:20:03:96:1c:
                    e8:d8:ca:e9:bc:ee:5f:93:eb:f8:48:ee:93:01:eb:
                    c3:a4:83:6b:3d:03:0e:fa:a7:aa:22:4d:66:40:8b:
                    ff:e4:9e:39:4f:b1:13:1f:ee:cd:70:21:10:26:96:
                    9b:03
                Exponent: 65537 (0x10001)
        X509v3 extensions:
            X509v3 Subject Key Identifier: 
                BF:EB:3A:84:42:B2:07:20:64:80:5F:29:BC:F8:61:4A:F6:05:54:0D
            X509v3 Authority Key Identifier: 
                EE:50:7B:40:71:90:A0:CE:F2:A3:28:0D:EC:1C:F2:D9:7E:A8:F3:0E
            Authority Information Access: 
                CA Issuers - URI:http://url-for-aia/Intermediate.cer
            X509v3 CRL Distribution Points: 
                Full Name:
                  URI:http://url-for-crl/Intermediate.crl
            X509v3 Key Usage: critical
                Digital Signature, Key Encipherment
            X509v3 Extended Key Usage: 
                TLS Web Server Authentication, TLS Web Client Authentication
    Signature Algorithm: sha1WithRSAEncryption
    Signature Value:
        65:d3:67:22:0d:6b:50:98:f7:3a:a9:d5:e8:8d:e3:b8:ed:eb:
        f9:14:95:e7:7c:d0:43:00:df:be:57:69:5b:57:02:47:54:41:
        57:9f:38:bd:b7:80:25:0d:1f:0c:6c:7f:c3:72:2d:b0:2b:fb:
        97:bf:50:cb:9f:b2:c9:79:4d:8a:03:a1:83:5d:1e:35:17:97:
        6d:65:e1:14:28:6b:1f:d5:2b:f3:5e:73:08:19:4a:c3:6a:70:
        e5:57:9a:1c:fe:74:e9:a6:07:44:b3:94:55:4c:8c:d1:d4:95:
        7d:5e:c1:a6:8b:0d:00:fe:d3:59:4b:f1:e1:e9:3e:3f:67:05:
        d2:c4:33:1b:e0:b5:7d:8c:c4:42:8f:44:2f:2c:6c:d8:16:bb:
        03:91:76:09:07:6e:4a:d3:bf:d5:41:42:ba:6e:e1:70:47:cf:
        9c:fd:e8:46:1a:ed:90:f3:47:05:c6:8d:07:92:1d:5a:b6:fd:
        cc:75:49:4a:47:5b:35:36:ce:b1:0c:af:21:87:72:4b:7d:eb:
        18:87:b0:98:55:f3:33:53:5f:15:f6:c2:a1:b9:3a:78:c5:65:
        45:e7:aa:04:ce:07:a5:db:ef:84:57:29:23:24:78:54:7e:39:
        8c:f8:ca:d5:4a:d8:12:fd:b4:3a:d3:b3:31:78:a7:57:b2:d1:
        2d:a7:e2:b5
-----BEGIN CERTIFICATE-----
MIIDoDCCAoigAwIBAgIUL9mJz//NU59ddWalU5MDTKBkz8MwDQYJKoZIhvcNAQEF
BQAwFzEVMBMGA1UEAwwMSW50ZXJtZWRpYXRlMB4XDTIxMTAwNTEyMDAwMFoXDTIy
MTAwNTEyMDAwMFowETEPMA0GA1UEAwwGVGFyZ2V0MIIBIjANBgkqhkiG9w0BAQEF
AAOCAQ8AMIIBCgKCAQEAp7i8knSxvI9b1TyBpo/Sv3649s1JW/0Y7gdcMs/xf1EG
mFORFk7ALDQWuBKdEF1yQuwA6WtK+xe/OjX5p/VQ34C/2Wo9dJNLzhNfVzyhYFUQ
6TIPhM7C11G+FrFUP4ZbnpzsXhCHEAiseO7al1qvUoTejS3kkTAJoecri4u4cKBD
D9sVSKXClK/5guSGV9Mc6AxxEQb+9V6tpibTUQvy8FyZBf5RoddK5n/zVOuCB/k6
g7vEtUEH33aVmu0ENEofvZEZeGvgJEzMrSGAYSADlhzo2MrpvO5fk+v4SO6TAevD
pINrPQMO+qeqIk1mQIv/5J45T7ETH+7NcCEQJpabAwIDAQABo4HpMIHmMB0GA1Ud
DgQWBBS/6zqEQrIHIGSAXym8+GFK9gVUDTAfBgNVHSMEGDAWgBTuUHtAcZCgzvKj
KA3sHPLZfqjzDjA/BggrBgEFBQcBAQQzMDEwLwYIKwYBBQUHMAKGI2h0dHA6Ly91
cmwtZm9yLWFpYS9JbnRlcm1lZGlhdGUuY2VyMDQGA1UdHwQtMCswKaAnoCWGI2h0
dHA6Ly91cmwtZm9yLWNybC9JbnRlcm1lZGlhdGUuY3JsMA4GA1UdDwEB/wQEAwIF
oDAdBgNVHSUEFjAUBggrBgEFBQcDAQYIKwYBBQUHAwIwDQYJKoZIhvcNAQEFBQAD
ggEBAGXTZyINa1CY9zqp1eiN47jt6/kUled80EMA375XaVtXAkdUQVefOL23gCUN
Hwxsf8NyLbAr+5e/UMufssl5TYoDoYNdHjUXl21l4RQoax/VK/NecwgZSsNqcOVX
mhz+dOmmB0SzlFVMjNHUlX1ewaaLDQD+01lL8eHpPj9nBdLEMxvgtX2MxEKPRC8s
bNgWuwORdgkHbkrTv9VBQrpu4XBHz5z96EYa7ZDzRwXGjQeSHVq2/cx1SUpHWzU2
zrEMryGHckt96xiHsJhV8zNTXxX2wqG5OnjFZUXnqgTOB6Xb74RXKSMkeFR+OYz4
ytVK2BL9tDrTszF4p1ey0S2n4rU=
-----END CERTIFICATE-----

Certificate:
    Data:
        Version: 3 (0x2)
        Serial Number:
            6e:60:d8:eb:62:e8:49:d5:85:e5:1c:23:ef:72:aa:9e:40:48:b4:9b
        Signature Algorithm: sha256WithRSAEncryption
        Issuer: CN=Root
        Validity
            Not Before: Oct  5 12:00:00 2021 GMT
            Not After : Oct  5 12:00:00 2022 GMT
        Subject: CN=Intermediate
        Subject Public Key Info:
            Public Key Algorithm: rsaEncryption
                Public-Key: (2048 bit)
                Modulus:
                    00:d9:cf:a3:72:11:43:a1:d1:78:59:5e:27:cb:ee:
                    f6:2e:52:4e:9d:79:d1:c4:1e:bd:bb:e9:d4:cb:5e:
                    95:9f:ba:0c:7c:aa:b3:1b:97:57:82:a9:6c:f1:e6:
                    89:4b:37:fc:68:8c:93:2b:c8:35:58:e4:f5:6a:c9:
                    9d:cc:a3:3f:25:98:a3:6f:81:6c:97:67:30:b8:7a:
                    ab:47:42:6a:7c:93:a1:c9:1d:3e:b9:02:fb:1c:71:
                    40:2d:9a:a3:46:35:5c:4e:db:a9:2d:9a:09:d6:d1:
                    9d:7c:99:93:a9:fd:25:98:90:ba:84:a7:74:bf:4f:
                    9a:8e:5b:a2:2e:6b:5d:23:c4:77:42:77:0b:8a:f4:
                    e1:55:21:66:18:43:a7:a6:08:41:99:42:cc:f3:1c:
                    90:93:21:12:5d:67:1d:af:fd:f0:f6:c1:ce:26:83:
                    85:02:6e:dc:ca:9a:d4:81:55:19:9c:57:a0:56:17:
                    4c:a7:1a:7b:f0:89:cf:9a:fd:27:56:9b:b6:24:00:
                    a4:8a:1b:82:5a:39:fc:3a:d1:e9:ae:03:0d:aa:8d:
                    95:c4:31:50:18:b5:0b:c5:4f:95:85:00:1d:de:e4:
                    d4:1f:fa:c3:90:12:47:d4:60:75:ca:5a:1b:37:22:
                    5a:21:14:21:89:8a:07:1b:10:5d:9f:35:b5:50:3f:
                    d2:29
                Exponent: 65537 (0x10001)
        X509v3 extensions:
            X509v3 Subject Key Identifier: 
                EE:50:7B:40:71:90:A0:CE:F2:A3:28:0D:EC:1C:F2:D9:7E:A8:F3:0E
            X509v3 Authority Key Identifier: 
                92:8E:AB:BC:5A:AD:A6:C8:EA:A3:7B:A6:23:5B:F4:4F:B0:FA:60:FA
            Authority Information Access: 
                CA Issuers - URI:http://url-for-aia/Root.cer
            X509v3 CRL Distribution Points: 
                Full Name:
                  URI:http://url-for-crl/Root.crl
            X509v3 Key Usage: critical
                Certificate Sign, CRL Sign
            X509v3 Basic Constraints: critical
                CA:TRUE
    Signature Algorithm: sha256WithRSAEncryption
    Signature Value:
        73:f0:17:ef:dd:b4:30:ef:d3:9a:09:30:ff:dc:4f:17:d8:65:
        11:06:5e:45:2c:08:23:6a:b2:8c:e5:94:ef:47:dc:ef:c9:c3:
        f1:a7:7e:85:d5:20:b6:d6:d3:70:33:a4:86:d0:1a:bc:ee:b6:
        e5:d5:62:3b:ff:94:eb:b9:74:12:9c:c0:0e:28:2a:d9:5e:30:
        bd:4c:ba:47:8e:74:f7:ab:e5:b6:00:41:bf:27:06:4b:ad:17:
        8d:b0:d1:3c:28:04:79:39:e2:13:3e:05:cb:05:6c:4c:4e:eb:
        7c:a3:13:c6:71:c6:f3:93:79:f5:bb:c0:d6:61:d7:2b:43:8b:
        0b:eb:77:a8:24:9b:07:d2:c5:25:bb:e0:c0:b0:e2:fe:1c:20:
        d6:cb:d8:2a:58:e5:eb:ef:d1:ec:79:d1:74:6a:2e:1f:ef:19:
        8a:19:95:ae:1a:ef:96:78:09:f2:95:00:53:69:34:42:0c:26:
        08:4e:7a:ed:fc:ee:1a:ef:c1:0d:84:42:1e:e3:81:f5:57:0f:
        52:ae:a0:fa:58:50:eb:e1:48:95:c5:9d:e6:b8:4f:5a:2f:b3:
        f5:35:63:23:80:06:05:f0:f0:86:ab:4e:ae:34:18:3b:7c:e0:
        d8:2b:2c:4d:14:16:1b:9c:ba:35:45:6c:6d:ed:87:4b:e4:1b:
        db:2d:5d:3e
-----BEGIN CERTIFICATE-----
MIIDgDCCAmigAwIBAgIUbmDY62LoSdWF5Rwj73KqnkBItJswDQYJKoZIhvcNAQEL
BQAwDzENMAsGA1UEAwwEUm9vdDAeFw0yMTEwMDUxMjAwMDBaFw0yMjEwMDUxMjAw
MDBaMBcxFTATBgNVBAMMDEludGVybWVkaWF0ZTCCASIwDQYJKoZIhvcNAQEBBQAD
ggEPADCCAQoCggEBANnPo3IRQ6HReFleJ8vu9i5STp150cQevbvp1MtelZ+6DHyq
sxuXV4KpbPHmiUs3/GiMkyvINVjk9WrJncyjPyWYo2+BbJdnMLh6q0dCanyTockd
PrkC+xxxQC2ao0Y1XE7bqS2aCdbRnXyZk6n9JZiQuoSndL9Pmo5boi5rXSPEd0J3
C4r04VUhZhhDp6YIQZlCzPMckJMhEl1nHa/98PbBziaDhQJu3Mqa1IFVGZxXoFYX
TKcae/CJz5r9J1abtiQApIobglo5/DrR6a4DDaqNlcQxUBi1C8VPlYUAHd7k1B/6
w5ASR9RgdcpaGzciWiEUIYmKBxsQXZ81tVA/0ikCAwEAAaOByzCByDAdBgNVHQ4E
FgQU7lB7QHGQoM7yoygN7Bzy2X6o8w4wHwYDVR0jBBgwFoAUko6rvFqtpsjqo3um
I1v0T7D6YPowNwYIKwYBBQUHAQEEKzApMCcGCCsGAQUFBzAChhtodHRwOi8vdXJs
LWZvci1haWEvUm9vdC5jZXIwLAYDVR0fBCUwIzAhoB+gHYYbaHR0cDovL3VybC1m
b3ItY3JsL1Jvb3QuY3JsMA4GA1UdDwEB/wQEAwIBBjAPBgNVHRMBAf8EBTADAQH/
MA0GCSqGSIb3DQEBCwUAA4IBAQBz8Bfv3bQw79OaCTD/3E8X2GURBl5FLAgjarKM
5ZTvR9zvycPxp36F1SC21tNwM6SG0Bq87rbl1WI7/5TruXQSnMAOKCrZXjC9TLpH
jnT3q+W2AEG/JwZLrReNsNE8KAR5OeITPgXLBWxMTut8oxPGccbzk3n1u8DWYdcr
Q4sL63eoJJsH0sUlu+DAsOL+HCDWy9gqWOXr79HsedF0ai4f7xmKGZWuGu+WeAny
lQBTaTRCDCYITnrt/O4a78ENhEIe44H1Vw9SrqD6WFDr4UiVxZ3muE9aL7P1NWMj
gAYF8PCGq06uNBg7fODYKyxNFBYbnLo1RWxt7YdL5BvbLV0+
-----END CERTIFICATE-----

Certificate:
    Data:
        Version: 3 (0x2)
        Serial Number:
            6e:60:d8:eb:62:e8:49:d5:85:e5:1c:23:ef:72:aa:9e:40:48:b4:9a
        Signature Algorithm: sha256WithRSAEncryption
        Issuer: CN=Root
        Validity
            Not Before: Oct  5 12:00:00 2021 GMT
            Not After : Oct  5 12:00:00 2022 GMT
        Subject: CN=Root
        Subject Public Key Info:
            Public Key Algorithm: rsaEncryption
                Public-Key: (2048 bit)
                Modulus:
                    00:f6:22:a8:ce:1d:94:88:97:b9:e7:e7:ab:56:da:
                    1c:7c:06:27:7b:06:ac:a5:75:b0:b8:8b:44:d9:8f:
                    07:38:8f:c8:15:46:49:46:c7:33:07:74:fa:4c:30:
                    a7:e6:48:eb:5c:03:14:0b:da:f9:66:be:0b:f4:04:
                    e2:d6:d8:79:cf:3c:0c:1d:61:27:4e:8e:0e:21:4f:
                    b6:2b:e0:bf:dd:67:0d:31:7b:38:36:8c:89:f0:50:
                    2c:35:f0:a6:1f:46:85:f2:78:59:2e:e0:f0:a3:a5:
                    d7:d5:25:a9:6e:d3:6e:6f:80:57:64:a0:c0:d3:75:
                    94:62:72:99:1f:a3:df:6e:b9:e3:39:6b:d3:94:83:
                    db:99:91:fa:d3:98:e2:c0:e3:66:71:1c:ff:ee:40:
                    14:75:eb:47:79:21:01:b5:60:86:81:1e:40:c7:e6:
                    b8:48:95:2c:07:50:49:40:65:9f:c4:91:6c:00:ee:
                    cc:98:1e:c5:d2:ef:fe:09:74:f2:b8:d9:91:48:01:
                    48:27:d9:50:b5:4f:44:e8:f3:fa:03:12:08:a5:fa:
                    b9:55:b1:45:59:76:87:c9:d4:c4:d7:65:ad:b4:c5:
                    82:79:ea:f0:b7:5c:75:18:4d:33:4c:bc:f6:05:e8:
                    22:30:6b:5b:d8:2a:14:2a:6a:11:7c:48:6a:7c:0e:
                    e7:e9
                Exponent: 65537 (0x10001)
        X509v3 extensions:
            X509v3 Subject Key Identifier: 
                92:8E:AB:BC:5A:AD:A6:C8:EA:A3:7B:A6:23:5B:F4:4F:B0:FA:60:FA
            X509v3 Authority Key Identifier: 
                92:8E:AB:BC:5A:AD:A6:C8:EA:A3:7B:A6:23:5B:F4:4F:B0:FA:60:FA
            Authority Information Access: 
                CA Issuers - URI:http://url-for-aia/Root.cer
            X509v3 CRL Distribution Points: 
                Full Name:
                  URI:http://url-for-crl/Root.crl
            X509v3 Key Usage: critical
                Certificate Sign, CRL Sign
            X509v3 Basic Constraints: critical
                CA:TRUE
    Signature Algorithm: sha256WithRSAEncryption
    Signature Value:
        0f:97:b8:d9:f8:02:d9:00:29:30:2f:23:ec:9f:25:e7:6b:4e:
        ae:a8:e0:fc:8a:44:e1:8c:18:bd:5b:0c:e4:e5:84:59:51:2a:
        5c:c0:8d:5f:e0:01:34:8d:95:e5:0e:e3:e9:9b:7a:14:64:31:
        f7:b1:19:38:94:16:bc:c3:db:9f:f0:53:d6:7a:28:ae:0a:ee:
        ff:ca:d7:4b:82:a7:60:f8:f8:80:2e:d8:34:39:d8:70:c6:fa:
        23:ba:72:62:bb:e6:25:be:74:84:40:e1:3a:37:32:a8:f4:89:
        1a:5c:70:cd:b0:d2:88:ca:4c:a5:0e:dd:f3:d8:f9:3d:e4:d3:
        71:d2:ef:dd:88:99:d3:2b:e7:ca:77:38:6b:2b:ec:12:1a:07:
        04:78:e3:25:86:61:34:b3:f0:85:46:65:20:85:f5:d0:d1:25:
        25:a4:df:27:4b:0d:c8:d9:95:74:3b:e9:2a:ff:31:d6:c4:3d:
        96:bb:3b:78:2a:c2:b7:51:72:2a:cb:2a:33:e3:65:a1:04:8c:
        58:db:ce:a0:35:03:a7:40:48:4f:bb:1d:cb:40:38:f0:02:49:
        56:29:58:45:f7:c8:5a:f2:00:58:d7:2a:a8:6b:1e:6a:79:86:
        a9:11:26:e8:ca:6c:63:fa:df:19:c7:7b:dd:6e:3d:de:6b:c8:
        0a:ef:4d:2e
-----BEGIN CERTIFICATE-----
MIIDeDCCAmCgAwIBAgIUbmDY62LoSdWF5Rwj73KqnkBItJowDQYJKoZIhvcNAQEL
BQAwDzENMAsGA1UEAwwEUm9vdDAeFw0yMTEwMDUxMjAwMDBaFw0yMjEwMDUxMjAw
MDBaMA8xDTALBgNVBAMMBFJvb3QwggEiMA0GCSqGSIb3DQEBAQUAA4IBDwAwggEK
AoIBAQD2IqjOHZSIl7nn56tW2hx8Bid7BqyldbC4i0TZjwc4j8gVRklGxzMHdPpM
MKfmSOtcAxQL2vlmvgv0BOLW2HnPPAwdYSdOjg4hT7Yr4L/dZw0xezg2jInwUCw1
8KYfRoXyeFku4PCjpdfVJalu025vgFdkoMDTdZRicpkfo99uueM5a9OUg9uZkfrT
mOLA42ZxHP/uQBR160d5IQG1YIaBHkDH5rhIlSwHUElAZZ/EkWwA7syYHsXS7/4J
dPK42ZFIAUgn2VC1T0To8/oDEgil+rlVsUVZdofJ1MTXZa20xYJ56vC3XHUYTTNM
vPYF6CIwa1vYKhQqahF8SGp8DufpAgMBAAGjgcswgcgwHQYDVR0OBBYEFJKOq7xa
rabI6qN7piNb9E+w+mD6MB8GA1UdIwQYMBaAFJKOq7xarabI6qN7piNb9E+w+mD6
MDcGCCsGAQUFBwEBBCswKTAnBggrBgEFBQcwAoYbaHR0cDovL3VybC1mb3ItYWlh
L1Jvb3QuY2VyMCwGA1UdHwQlMCMwIaAfoB2GG2h0dHA6Ly91cmwtZm9yLWNybC9S
b290LmNybDAOBgNVHQ8BAf8EBAMCAQYwDwYDVR0TAQH/BAUwAwEB/zANBgkqhkiG
9w0BAQsFAAOCAQEAD5e42fgC2QApMC8j7J8l52tOrqjg/IpE4YwYvVsM5OWEWVEq
XMCNX+ABNI2V5Q7j6Zt6FGQx97EZOJQWvMPbn/BT1noorgru/8rXS4KnYPj4gC7Y
NDnYcMb6I7pyYrvmJb50hEDhOjcyqPSJGlxwzbDSiMpMpQ7d89j5PeTTcdLv3YiZ
0yvnync4ayvsEhoHBHjjJYZhNLPwhUZlIIX10NElJaTfJ0sNyNmVdDvpKv8x1sQ9
lrs7eCrCt1FyKssqM+NloQSMWNvOoDUDp0BIT7sdy0A48AJJVilYRffIWvIAWNcq
qGseanmGqREm6MpsY/rfGcd73W493mvICu9NLg==
-----END CERTIFICATE-----
