[Created by: ./generate-certs.py]

Intermediate with same issuer name & different serial

Certificate:
    Data:
        Version: 3 (0x2)
        Serial Number:
            27:4f:b6:81:70:40:f1:c5:b2:96:9c:1c:da:b0:bc:27:d5:3e:73:f8
        Signature Algorithm: sha256WithRSAEncryption
        Issuer: CN=Root
        Validity
            Not Before: Jan  2 12:00:00 2015 GMT
            Not After : Jan  1 12:00:00 2018 GMT
        Subject: CN=Intermediate
        Subject Public Key Info:
            Public Key Algorithm: rsaEncryption
                RSA Public-Key: (2048 bit)
                Modulus:
                    00:e2:a1:85:d1:32:c8:5d:6a:2e:8a:5d:64:ff:87:
                    f5:84:7f:4c:9c:14:e8:04:f3:c3:e9:db:fd:bd:87:
                    86:1a:82:dd:10:8a:85:57:9a:ab:5e:6a:94:a7:8d:
                    5e:49:0a:0e:3e:2d:2d:5c:a7:78:78:3d:67:95:e0:
                    73:a8:4a:6b:be:0f:61:ba:dc:40:c4:65:41:f0:fa:
                    a2:28:c7:b3:6d:0f:55:dd:e4:45:8d:e3:f4:3f:ca:
                    54:e6:a0:a9:d0:2a:5b:99:42:7f:cf:1a:84:6f:bc:
                    77:0a:14:53:dd:cb:77:38:9f:1d:7c:1c:89:13:53:
                    d7:43:c0:31:9a:56:8a:17:5e:2b:87:07:61:84:8d:
                    8b:7e:b9:6b:f5:51:34:79:26:7b:5c:46:28:14:e5:
                    6f:51:16:fa:14:8e:e2:be:03:67:bd:eb:cd:89:d6:
                    93:95:66:d5:da:fa:8a:fb:79:e6:9b:a1:2f:a6:2d:
                    59:aa:29:f7:74:29:07:07:b3:8c:1b:65:7c:18:24:
                    89:fc:cb:fa:fd:17:5e:1c:cb:a8:22:f7:80:cc:57:
                    c3:72:8d:51:ef:4d:14:83:da:1e:5d:66:5f:c1:66:
                    c1:64:61:d5:a5:08:08:40:5d:99:90:51:e6:6f:bc:
                    b5:32:55:ef:f8:6d:4a:44:4e:f8:67:93:f6:a2:e2:
                    b8:d9
                Exponent: 65537 (0x10001)
        X509v3 extensions:
            X509v3 Subject Key Identifier: 
                BD:F9:13:D6:3D:BB:66:4C:4C:F9:8E:E7:B2:8B:17:04:F8:73:D9:2E
            X509v3 Authority Key Identifier: 
                keyid:0F:65:16:31:5F:9E:C8:16:9C:4F:54:54:37:82:56:28:FE:18:9D:71

            Authority Information Access: 
                CA Issuers - URI:http://url-for-aia/Root.cer

            X509v3 CRL Distribution Points: 

                Full Name:
                  URI:http://url-for-crl/Root.crl

            X509v3 Key Usage: critical
                Certificate Sign, CRL Sign
            X509v3 Basic Constraints: critical
                CA:TRUE
    Signature Algorithm: sha256WithRSAEncryption
         91:2a:4e:b9:b4:67:69:68:8a:44:11:63:2d:96:ba:2a:fb:04:
         d4:1d:49:60:14:5e:69:1f:8d:10:24:8f:62:fe:c3:cc:1e:0b:
         a4:a9:35:ec:fa:f9:b9:09:d9:55:13:70:36:dc:9b:a2:d0:ed:
         c6:75:2a:3b:29:8d:92:81:c9:f3:84:bd:f8:45:34:45:8a:5f:
         3e:c8:42:33:36:ef:6a:44:e2:ed:87:34:4a:b1:2f:32:eb:45:
         15:93:21:2f:08:32:c3:a4:76:75:96:bf:84:97:66:e8:d5:b1:
         d2:8c:d1:7f:2f:74:1a:a5:1d:21:d5:34:cf:89:95:ca:37:91:
         31:bb:02:60:96:f8:b4:4b:c9:7e:39:ad:e9:43:2f:fd:04:a6:
         ad:71:e4:52:eb:f7:3f:d9:1a:25:91:21:82:ad:36:13:17:b7:
         76:fc:55:85:be:e7:d5:38:97:fd:67:6b:54:97:9b:c7:00:07:
         5f:df:b7:cb:0b:21:7e:44:23:cb:ba:84:e8:4d:21:f8:0e:b7:
         64:de:34:2f:d2:80:ca:65:89:93:95:38:99:7e:73:2e:61:c6:
         ee:b2:51:9b:71:d3:01:65:ca:60:2b:f7:2e:36:e8:2f:8e:bc:
         a4:f4:0c:b5:3d:43:6e:d9:29:19:bf:85:6a:8c:42:76:87:de:
         f5:b9:0f:45
-----BEGIN CERTIFICATE-----
MIIDgDCCAmigAwIBAgIUJ0+2gXBA8cWylpwc2rC8J9U+c/gwDQYJKoZIhvcNAQEL
BQAwDzENMAsGA1UEAwwEUm9vdDAeFw0xNTAxMDIxMjAwMDBaFw0xODAxMDExMjAw
MDBaMBcxFTATBgNVBAMMDEludGVybWVkaWF0ZTCCASIwDQYJKoZIhvcNAQEBBQAD
ggEPADCCAQoCggEBAOKhhdEyyF1qLopdZP+H9YR/TJwU6ATzw+nb/b2HhhqC3RCK
hVeaq15qlKeNXkkKDj4tLVyneHg9Z5Xgc6hKa74PYbrcQMRlQfD6oijHs20PVd3k
RY3j9D/KVOagqdAqW5lCf88ahG+8dwoUU93LdzifHXwciRNT10PAMZpWihdeK4cH
YYSNi365a/VRNHkme1xGKBTlb1EW+hSO4r4DZ73rzYnWk5Vm1dr6ivt55puhL6Yt
Waop93QpBwezjBtlfBgkifzL+v0XXhzLqCL3gMxXw3KNUe9NFIPaHl1mX8FmwWRh
1aUICEBdmZBR5m+8tTJV7/htSkRO+GeT9qLiuNkCAwEAAaOByzCByDAdBgNVHQ4E
FgQUvfkT1j27ZkxM+Y7nsosXBPhz2S4wHwYDVR0jBBgwFoAUD2UWMV+eyBacT1RU
N4JWKP4YnXEwNwYIKwYBBQUHAQEEKzApMCcGCCsGAQUFBzAChhtodHRwOi8vdXJs
LWZvci1haWEvUm9vdC5jZXIwLAYDVR0fBCUwIzAhoB+gHYYbaHR0cDovL3VybC1m
b3ItY3JsL1Jvb3QuY3JsMA4GA1UdDwEB/wQEAwIBBjAPBgNVHRMBAf8EBTADAQH/
MA0GCSqGSIb3DQEBCwUAA4IBAQCRKk65tGdpaIpEEWMtlroq+wTUHUlgFF5pH40Q
JI9i/sPMHgukqTXs+vm5CdlVE3A23Jui0O3GdSo7KY2SgcnzhL34RTRFil8+yEIz
Nu9qROLthzRKsS8y60UVkyEvCDLDpHZ1lr+El2bo1bHSjNF/L3QapR0h1TTPiZXK
N5ExuwJglvi0S8l+Oa3pQy/9BKatceRS6/c/2RolkSGCrTYTF7d2/FWFvufVOJf9
Z2tUl5vHAAdf37fLCyF+RCPLuoToTSH4Drdk3jQv0oDKZYmTlTiZfnMuYcbuslGb
cdMBZcpgK/cuNugvjryk9Ay1PUNu2SkZv4VqjEJ2h971uQ9F
-----END CERTIFICATE-----
