[Created by: ./generate-certs.py]

Intermediate with matching issuer name & serial

Certificate:
    Data:
        Version: 3 (0x2)
        Serial Number:
            27:4f:b6:81:70:40:f1:c5:b2:96:9c:1c:da:b0:bc:27:d5:3e:73:f7
        Signature Algorithm: sha256WithRSAEncryption
        Issuer: CN=Root
        Validity
            Not Before: Jan  1 12:00:00 2015 GMT
            Not After : Jan  1 12:00:00 2018 GMT
        Subject: CN=Intermediate
        Subject Public Key Info:
            Public Key Algorithm: rsaEncryption
                RSA Public-Key: (2048 bit)
                Modulus:
                    00:e2:a1:85:d1:32:c8:5d:6a:2e:8a:5d:64:ff:87:
                    f5:84:7f:4c:9c:14:e8:04:f3:c3:e9:db:fd:bd:87:
                    86:1a:82:dd:10:8a:85:57:9a:ab:5e:6a:94:a7:8d:
                    5e:49:0a:0e:3e:2d:2d:5c:a7:78:78:3d:67:95:e0:
                    73:a8:4a:6b:be:0f:61:ba:dc:40:c4:65:41:f0:fa:
                    a2:28:c7:b3:6d:0f:55:dd:e4:45:8d:e3:f4:3f:ca:
                    54:e6:a0:a9:d0:2a:5b:99:42:7f:cf:1a:84:6f:bc:
                    77:0a:14:53:dd:cb:77:38:9f:1d:7c:1c:89:13:53:
                    d7:43:c0:31:9a:56:8a:17:5e:2b:87:07:61:84:8d:
                    8b:7e:b9:6b:f5:51:34:79:26:7b:5c:46:28:14:e5:
                    6f:51:16:fa:14:8e:e2:be:03:67:bd:eb:cd:89:d6:
                    93:95:66:d5:da:fa:8a:fb:79:e6:9b:a1:2f:a6:2d:
                    59:aa:29:f7:74:29:07:07:b3:8c:1b:65:7c:18:24:
                    89:fc:cb:fa:fd:17:5e:1c:cb:a8:22:f7:80:cc:57:
                    c3:72:8d:51:ef:4d:14:83:da:1e:5d:66:5f:c1:66:
                    c1:64:61:d5:a5:08:08:40:5d:99:90:51:e6:6f:bc:
                    b5:32:55:ef:f8:6d:4a:44:4e:f8:67:93:f6:a2:e2:
                    b8:d9
                Exponent: 65537 (0x10001)
        X509v3 extensions:
            X509v3 Subject Key Identifier: 
                BD:F9:13:D6:3D:BB:66:4C:4C:F9:8E:E7:B2:8B:17:04:F8:73:D9:2E
            X509v3 Authority Key Identifier: 
                keyid:0F:65:16:31:5F:9E:C8:16:9C:4F:54:54:37:82:56:28:FE:18:9D:71

            Authority Information Access: 
                CA Issuers - URI:http://url-for-aia/Root.cer

            X509v3 CRL Distribution Points: 

                Full Name:
                  URI:http://url-for-crl/Root.crl

            X509v3 Key Usage: critical
                Certificate Sign, CRL Sign
            X509v3 Basic Constraints: critical
                CA:TRUE
    Signature Algorithm: sha256WithRSAEncryption
         16:cb:0b:89:93:42:ae:5c:b4:4a:04:49:7c:4c:fd:bd:7e:75:
         d6:38:b8:e5:c7:52:06:51:84:c6:11:86:8f:ab:70:59:83:23:
         b0:15:68:b6:5d:84:1b:63:75:28:1e:a5:2f:11:80:12:f0:ac:
         0f:77:b5:db:22:0b:c0:ef:12:28:b8:72:fb:26:70:7c:2b:2c:
         8f:4a:65:c4:69:0c:19:d1:58:2d:73:69:07:1c:09:23:0d:3c:
         c9:80:44:66:8f:d0:b1:b4:46:6f:1e:70:a3:9a:64:47:07:12:
         1a:66:2a:c5:59:65:b3:a5:47:07:34:85:81:f6:77:49:0c:bc:
         8f:e5:36:1f:3c:22:6f:e6:1c:d1:6d:39:8b:2a:09:db:20:6f:
         48:dd:39:14:cf:16:0f:2e:43:34:c3:6c:a4:9e:3c:b3:50:38:
         d0:f0:d3:c3:44:e1:34:73:d2:5f:d1:33:34:b5:b2:40:89:53:
         85:8f:dd:34:a4:3f:3a:66:7b:1b:e0:47:a4:1e:2a:1c:56:78:
         2b:05:87:69:22:52:68:d9:e8:99:40:79:c2:dd:0c:cd:ff:a0:
         31:3b:51:a6:ed:14:af:88:9c:2e:52:28:4f:32:7d:ce:d1:4c:
         f4:a2:2c:a5:bd:d5:14:76:82:6d:ab:4b:c2:b8:88:b1:bc:23:
         25:a2:c7:aa
-----BEGIN CERTIFICATE-----
MIIDgDCCAmigAwIBAgIUJ0+2gXBA8cWylpwc2rC8J9U+c/cwDQYJKoZIhvcNAQEL
BQAwDzENMAsGA1UEAwwEUm9vdDAeFw0xNTAxMDExMjAwMDBaFw0xODAxMDExMjAw
MDBaMBcxFTATBgNVBAMMDEludGVybWVkaWF0ZTCCASIwDQYJKoZIhvcNAQEBBQAD
ggEPADCCAQoCggEBAOKhhdEyyF1qLopdZP+H9YR/TJwU6ATzw+nb/b2HhhqC3RCK
hVeaq15qlKeNXkkKDj4tLVyneHg9Z5Xgc6hKa74PYbrcQMRlQfD6oijHs20PVd3k
RY3j9D/KVOagqdAqW5lCf88ahG+8dwoUU93LdzifHXwciRNT10PAMZpWihdeK4cH
YYSNi365a/VRNHkme1xGKBTlb1EW+hSO4r4DZ73rzYnWk5Vm1dr6ivt55puhL6Yt
Waop93QpBwezjBtlfBgkifzL+v0XXhzLqCL3gMxXw3KNUe9NFIPaHl1mX8FmwWRh
1aUICEBdmZBR5m+8tTJV7/htSkRO+GeT9qLiuNkCAwEAAaOByzCByDAdBgNVHQ4E
FgQUvfkT1j27ZkxM+Y7nsosXBPhz2S4wHwYDVR0jBBgwFoAUD2UWMV+eyBacT1RU
N4JWKP4YnXEwNwYIKwYBBQUHAQEEKzApMCcGCCsGAQUFBzAChhtodHRwOi8vdXJs
LWZvci1haWEvUm9vdC5jZXIwLAYDVR0fBCUwIzAhoB+gHYYbaHR0cDovL3VybC1m
b3ItY3JsL1Jvb3QuY3JsMA4GA1UdDwEB/wQEAwIBBjAPBgNVHRMBAf8EBTADAQH/
MA0GCSqGSIb3DQEBCwUAA4IBAQAWywuJk0KuXLRKBEl8TP29fnXWOLjlx1IGUYTG
EYaPq3BZgyOwFWi2XYQbY3UoHqUvEYAS8KwPd7XbIgvA7xIouHL7JnB8KyyPSmXE
aQwZ0Vgtc2kHHAkjDTzJgERmj9CxtEZvHnCjmmRHBxIaZirFWWWzpUcHNIWB9ndJ
DLyP5TYfPCJv5hzRbTmLKgnbIG9I3TkUzxYPLkM0w2yknjyzUDjQ8NPDROE0c9Jf
0TM0tbJAiVOFj900pD86Znsb4EekHiocVngrBYdpIlJo2eiZQHnC3QzN/6AxO1Gm
7RSviJwuUihPMn3O0Uz0oiylvdUUdoJtq0vCuIixvCMloseq
-----END CERTIFICATE-----
