[Created by: ./generate-certs.py]

Intermediate with different issuer name & serial

Certificate:
    Data:
        Version: 3 (0x2)
        Serial Number:
            28:91:93:c8:61:2d:bb:b9:e0:39:3e:3f:37:ee:56:60:5e:6f:b6:82
        Signature Algorithm: sha256WithRSAEncryption
        Issuer: CN=Root2
        Validity
            Not Before: Jan  3 12:00:00 2015 GMT
            Not After : Jan  1 12:00:00 2018 GMT
        Subject: CN=Intermediate
        Subject Public Key Info:
            Public Key Algorithm: rsaEncryption
                RSA Public-Key: (2048 bit)
                Modulus:
                    00:e2:a1:85:d1:32:c8:5d:6a:2e:8a:5d:64:ff:87:
                    f5:84:7f:4c:9c:14:e8:04:f3:c3:e9:db:fd:bd:87:
                    86:1a:82:dd:10:8a:85:57:9a:ab:5e:6a:94:a7:8d:
                    5e:49:0a:0e:3e:2d:2d:5c:a7:78:78:3d:67:95:e0:
                    73:a8:4a:6b:be:0f:61:ba:dc:40:c4:65:41:f0:fa:
                    a2:28:c7:b3:6d:0f:55:dd:e4:45:8d:e3:f4:3f:ca:
                    54:e6:a0:a9:d0:2a:5b:99:42:7f:cf:1a:84:6f:bc:
                    77:0a:14:53:dd:cb:77:38:9f:1d:7c:1c:89:13:53:
                    d7:43:c0:31:9a:56:8a:17:5e:2b:87:07:61:84:8d:
                    8b:7e:b9:6b:f5:51:34:79:26:7b:5c:46:28:14:e5:
                    6f:51:16:fa:14:8e:e2:be:03:67:bd:eb:cd:89:d6:
                    93:95:66:d5:da:fa:8a:fb:79:e6:9b:a1:2f:a6:2d:
                    59:aa:29:f7:74:29:07:07:b3:8c:1b:65:7c:18:24:
                    89:fc:cb:fa:fd:17:5e:1c:cb:a8:22:f7:80:cc:57:
                    c3:72:8d:51:ef:4d:14:83:da:1e:5d:66:5f:c1:66:
                    c1:64:61:d5:a5:08:08:40:5d:99:90:51:e6:6f:bc:
                    b5:32:55:ef:f8:6d:4a:44:4e:f8:67:93:f6:a2:e2:
                    b8:d9
                Exponent: 65537 (0x10001)
        X509v3 extensions:
            X509v3 Subject Key Identifier: 
                BD:F9:13:D6:3D:BB:66:4C:4C:F9:8E:E7:B2:8B:17:04:F8:73:D9:2E
            X509v3 Authority Key Identifier: 
                keyid:08:D2:FA:18:64:5B:EC:E9:49:1A:79:FD:B3:78:0E:51:7E:1A:CF:F5

            Authority Information Access: 
                CA Issuers - URI:http://url-for-aia/Root2.cer

            X509v3 CRL Distribution Points: 

                Full Name:
                  URI:http://url-for-crl/Root2.crl

            X509v3 Key Usage: critical
                Certificate Sign, CRL Sign
            X509v3 Basic Constraints: critical
                CA:TRUE
    Signature Algorithm: sha256WithRSAEncryption
         8c:6f:af:93:10:11:6e:97:08:e9:39:d3:8f:47:27:a5:9d:c9:
         0c:ae:45:bf:e6:52:e3:36:eb:41:40:c4:07:df:2f:b8:7c:8d:
         de:02:f9:15:82:3f:b3:b4:30:54:8c:45:1f:50:99:bb:f3:d7:
         54:f4:06:a8:2f:86:78:94:d0:0a:ee:3c:55:a7:c4:c6:a9:5b:
         de:78:94:b6:61:cc:2a:68:e0:99:37:ff:bb:cf:60:59:5d:85:
         ec:93:f8:f5:e9:ec:7a:89:e6:2a:b8:0d:ca:87:14:d9:8c:fd:
         71:b8:5b:38:b4:26:e6:d7:21:78:c4:4e:a0:5f:e3:d7:dc:19:
         19:0f:7d:2f:e8:bd:64:94:ec:5f:aa:1f:f7:81:21:f4:a4:c8:
         05:0a:85:25:6b:ab:72:0d:5c:ff:8f:aa:d8:51:3b:dc:f1:d0:
         5c:0f:84:27:f4:60:dc:ca:e6:d7:72:c6:18:4e:28:3b:39:67:
         1d:f2:5d:33:f2:ab:2e:8d:a2:48:57:d9:4e:22:30:ca:fb:4f:
         9b:22:7d:12:aa:f8:ea:26:3f:18:68:69:66:43:e9:c6:12:92:
         5a:73:12:7b:5b:00:cf:e1:80:c6:28:a7:33:01:41:a6:67:08:
         7e:cf:5c:59:67:e9:47:57:0c:5b:d5:58:0f:36:22:a0:74:56:
         ed:92:6d:40
-----BEGIN CERTIFICATE-----
MIIDgzCCAmugAwIBAgIUKJGTyGEtu7ngOT4/N+5WYF5vtoIwDQYJKoZIhvcNAQEL
BQAwEDEOMAwGA1UEAwwFUm9vdDIwHhcNMTUwMTAzMTIwMDAwWhcNMTgwMTAxMTIw
MDAwWjAXMRUwEwYDVQQDDAxJbnRlcm1lZGlhdGUwggEiMA0GCSqGSIb3DQEBAQUA
A4IBDwAwggEKAoIBAQDioYXRMshdai6KXWT/h/WEf0ycFOgE88Pp2/29h4Yagt0Q
ioVXmqteapSnjV5JCg4+LS1cp3h4PWeV4HOoSmu+D2G63EDEZUHw+qIox7NtD1Xd
5EWN4/Q/ylTmoKnQKluZQn/PGoRvvHcKFFPdy3c4nx18HIkTU9dDwDGaVooXXiuH
B2GEjYt+uWv1UTR5JntcRigU5W9RFvoUjuK+A2e9682J1pOVZtXa+or7eeaboS+m
LVmqKfd0KQcHs4wbZXwYJIn8y/r9F14cy6gi94DMV8NyjVHvTRSD2h5dZl/BZsFk
YdWlCAhAXZmQUeZvvLUyVe/4bUpETvhnk/ai4rjZAgMBAAGjgc0wgcowHQYDVR0O
BBYEFL35E9Y9u2ZMTPmO57KLFwT4c9kuMB8GA1UdIwQYMBaAFAjS+hhkW+zpSRp5
/bN4DlF+Gs/1MDgGCCsGAQUFBwEBBCwwKjAoBggrBgEFBQcwAoYcaHR0cDovL3Vy
bC1mb3ItYWlhL1Jvb3QyLmNlcjAtBgNVHR8EJjAkMCKgIKAehhxodHRwOi8vdXJs
LWZvci1jcmwvUm9vdDIuY3JsMA4GA1UdDwEB/wQEAwIBBjAPBgNVHRMBAf8EBTAD
AQH/MA0GCSqGSIb3DQEBCwUAA4IBAQCMb6+TEBFulwjpOdOPRyelnckMrkW/5lLj
NutBQMQH3y+4fI3eAvkVgj+ztDBUjEUfUJm789dU9AaoL4Z4lNAK7jxVp8TGqVve
eJS2YcwqaOCZN/+7z2BZXYXsk/j16ex6ieYquA3KhxTZjP1xuFs4tCbm1yF4xE6g
X+PX3BkZD30v6L1klOxfqh/3gSH0pMgFCoUla6tyDVz/j6rYUTvc8dBcD4Qn9GDc
yubXcsYYTig7OWcd8l0z8qsujaJIV9lOIjDK+0+bIn0SqvjqJj8YaGlmQ+nGEpJa
cxJ7WwDP4YDGKKczAUGmZwh+z1xZZ+lHVwxb1VgPNiKgdFbtkm1A
-----END CERTIFICATE-----
