[Created by: ./generate-certs.py]

The 2nd root

Certificate:
    Data:
        Version: 3 (0x2)
        Serial Number:
            28:91:93:c8:61:2d:bb:b9:e0:39:3e:3f:37:ee:56:60:5e:6f:b6:81
        Signature Algorithm: sha256WithRSAEncryption
        Issuer: CN=Root2
        Validity
            Not Before: Jan  1 12:00:00 2015 GMT
            Not After : Jan  1 12:00:00 2018 GMT
        Subject: CN=Root2
        Subject Public Key Info:
            Public Key Algorithm: rsaEncryption
                RSA Public-Key: (2048 bit)
                Modulus:
                    00:f6:60:91:e0:34:e7:16:b9:7b:37:b1:77:cb:af:
                    6f:7c:aa:ba:a4:80:fe:a5:c6:4e:f1:64:a2:24:ca:
                    7c:8a:2c:9b:4c:35:c1:f2:f2:bb:6b:74:cf:44:6a:
                    3e:51:b7:3d:fc:fe:22:71:00:ff:14:20:14:30:43:
                    0c:af:cc:42:1c:16:14:d0:52:5b:44:45:96:7b:7f:
                    bf:40:a6:3e:4d:cb:72:1d:80:5f:c8:2b:2e:bf:b3:
                    d8:10:c7:86:0a:10:40:e6:b1:c8:94:3a:02:0a:69:
                    71:72:ec:df:93:24:95:a1:b8:09:cd:4d:25:a5:ce:
                    1e:a5:97:d7:1b:6b:9b:56:60:c2:17:04:a6:4f:c9:
                    18:78:44:7b:4c:1f:ee:9f:6f:fe:81:de:0a:34:55:
                    66:7b:ec:a5:14:ba:bf:6d:3e:5b:f2:97:f6:6e:ba:
                    91:e1:ca:a8:c7:7b:8a:0a:0b:11:b8:0f:05:39:24:
                    75:6f:41:57:e3:a0:5d:94:9a:f7:6c:99:ef:90:36:
                    00:d3:f3:8d:bb:72:2c:a4:97:b8:41:5f:2b:0b:98:
                    4f:c6:f0:95:69:b1:11:32:7a:0a:59:3b:e7:a1:b0:
                    8f:45:33:29:49:7f:a0:f0:67:c5:a3:47:69:01:34:
                    56:ad:82:77:8f:64:f9:db:8b:e9:7b:6a:f0:eb:92:
                    6e:5d
                Exponent: 65537 (0x10001)
        X509v3 extensions:
            X509v3 Subject Key Identifier: 
                08:D2:FA:18:64:5B:EC:E9:49:1A:79:FD:B3:78:0E:51:7E:1A:CF:F5
            X509v3 Authority Key Identifier: 
                keyid:08:D2:FA:18:64:5B:EC:E9:49:1A:79:FD:B3:78:0E:51:7E:1A:CF:F5

            Authority Information Access: 
                CA Issuers - URI:http://url-for-aia/Root2.cer

            X509v3 CRL Distribution Points: 

                Full Name:
                  URI:http://url-for-crl/Root2.crl

            X509v3 Key Usage: critical
                Certificate Sign, CRL Sign
            X509v3 Basic Constraints: critical
                CA:TRUE
    Signature Algorithm: sha256WithRSAEncryption
         c9:83:91:ee:f4:25:4a:fa:fb:ef:df:cc:8f:64:bf:3c:d5:22:
         fe:35:6e:27:a8:99:a8:cc:e9:e2:35:3d:d3:5a:f1:8e:24:2a:
         76:69:03:62:17:c7:bf:03:97:f6:74:d3:6f:bf:67:bf:2a:93:
         c1:92:0a:1c:95:d8:02:7e:d6:ab:92:da:67:98:13:61:7b:57:
         ae:60:a0:67:a5:22:73:6d:4d:0c:ae:f2:4f:c5:dc:5c:da:7f:
         0b:2f:48:31:1f:db:fc:df:2e:4f:a9:d5:24:ad:ba:f3:7a:99:
         f1:0a:ae:09:2a:75:e2:d2:0d:1b:d9:93:aa:92:69:ba:e6:f4:
         ef:7d:18:0e:3a:16:a5:5c:de:66:3e:42:61:55:48:07:7b:b2:
         c9:d4:4a:77:02:ea:74:11:c5:35:61:92:42:af:c3:0b:46:ee:
         21:50:fb:90:a5:92:e5:34:c8:1f:c6:c8:2c:d7:f4:35:dd:99:
         ed:6d:94:be:83:db:d1:90:03:ea:7f:02:97:34:4f:7a:91:96:
         f9:17:42:34:f4:44:97:18:3e:c3:93:61:ad:e0:14:09:1f:ce:
         75:5d:5d:7b:76:94:ae:80:5b:62:a4:ae:17:f8:1a:0c:b8:82:
         d5:29:9f:bd:75:a9:6d:98:53:73:25:d4:6c:f6:2d:2e:3a:a2:
         2a:35:ce:97
-----BEGIN CERTIFICATE-----
MIIDfDCCAmSgAwIBAgIUKJGTyGEtu7ngOT4/N+5WYF5vtoEwDQYJKoZIhvcNAQEL
BQAwEDEOMAwGA1UEAwwFUm9vdDIwHhcNMTUwMTAxMTIwMDAwWhcNMTgwMTAxMTIw
MDAwWjAQMQ4wDAYDVQQDDAVSb290MjCCASIwDQYJKoZIhvcNAQEBBQADggEPADCC
AQoCggEBAPZgkeA05xa5ezexd8uvb3yquqSA/qXGTvFkoiTKfIosm0w1wfLyu2t0
z0RqPlG3Pfz+InEA/xQgFDBDDK/MQhwWFNBSW0RFlnt/v0CmPk3Lch2AX8grLr+z
2BDHhgoQQOaxyJQ6AgppcXLs35MklaG4Cc1NJaXOHqWX1xtrm1ZgwhcEpk/JGHhE
e0wf7p9v/oHeCjRVZnvspRS6v20+W/KX9m66keHKqMd7igoLEbgPBTkkdW9BV+Og
XZSa92yZ75A2ANPzjbtyLKSXuEFfKwuYT8bwlWmxETJ6Clk756Gwj0UzKUl/oPBn
xaNHaQE0Vq2Cd49k+duL6Xtq8OuSbl0CAwEAAaOBzTCByjAdBgNVHQ4EFgQUCNL6
GGRb7OlJGnn9s3gOUX4az/UwHwYDVR0jBBgwFoAUCNL6GGRb7OlJGnn9s3gOUX4a
z/UwOAYIKwYBBQUHAQEELDAqMCgGCCsGAQUFBzAChhxodHRwOi8vdXJsLWZvci1h
aWEvUm9vdDIuY2VyMC0GA1UdHwQmMCQwIqAgoB6GHGh0dHA6Ly91cmwtZm9yLWNy
bC9Sb290Mi5jcmwwDgYDVR0PAQH/BAQDAgEGMA8GA1UdEwEB/wQFMAMBAf8wDQYJ
KoZIhvcNAQELBQADggEBAMmDke70JUr6++/fzI9kvzzVIv41bieomajM6eI1PdNa
8Y4kKnZpA2IXx78Dl/Z002+/Z78qk8GSChyV2AJ+1quS2meYE2F7V65goGelInNt
TQyu8k/F3FzafwsvSDEf2/zfLk+p1SStuvN6mfEKrgkqdeLSDRvZk6qSabrm9O99
GA46FqVc3mY+QmFVSAd7ssnUSncC6nQRxTVhkkKvwwtG7iFQ+5ClkuU0yB/GyCzX
9DXdme1tlL6D29GQA+p/Apc0T3qRlvkXQjT0RJcYPsOTYa3gFAkfznVdXXt2lK6A
W2Kkrhf4Ggy4gtUpn711qW2YU3Ml1Gz2LS46oio1zpc=
-----END CERTIFICATE-----
