[Created by: ./generate-certs.py]

The 1st root

Certificate:
    Data:
        Version: 3 (0x2)
        Serial Number:
            27:4f:b6:81:70:40:f1:c5:b2:96:9c:1c:da:b0:bc:27:d5:3e:73:f6
        Signature Algorithm: sha256WithRSAEncryption
        Issuer: CN=Root
        Validity
            Not Before: Jan  1 12:00:00 2015 GMT
            Not After : Jan  1 12:00:00 2018 GMT
        Subject: CN=Root
        Subject Public Key Info:
            Public Key Algorithm: rsaEncryption
                RSA Public-Key: (2048 bit)
                Modulus:
                    00:d5:c2:6f:0b:f4:56:c6:8f:c5:b3:dd:4a:7d:1e:
                    d0:94:0e:bb:b4:71:98:83:d4:d4:92:11:27:1a:dc:
                    f3:5c:e8:57:db:b9:ee:02:1e:be:ca:b4:81:f1:6d:
                    92:a6:40:c3:e0:82:1f:eb:7f:20:69:da:12:91:c6:
                    96:48:73:18:f8:43:35:37:c9:5d:97:33:5c:aa:99:
                    32:98:93:b5:51:05:ea:4f:92:57:a9:70:d4:05:76:
                    88:0e:6a:16:d2:e0:60:91:5f:2f:0d:a8:7d:48:54:
                    bc:9a:41:60:9b:f2:12:dd:4f:b1:81:e2:fc:f8:9a:
                    28:23:b5:db:bb:ce:11:9d:7e:98:20:8f:90:29:22:
                    ac:5c:28:c5:1a:1f:97:7e:5a:55:be:2b:c3:b3:83:
                    47:5a:0a:7d:6b:b3:c8:ff:bd:17:68:19:a4:b1:33:
                    e8:99:4a:ae:5e:5c:ae:06:7d:d0:85:6c:d1:4f:40:
                    68:7a:a2:cb:2f:9b:eb:6d:82:39:07:91:87:03:9e:
                    83:96:39:c8:06:34:4d:61:e7:07:44:f5:ea:24:8a:
                    b1:43:e3:14:fd:59:4c:a2:54:8f:9c:7b:0a:65:0f:
                    3e:7b:3f:38:db:d8:76:78:28:42:db:b5:a4:fd:8f:
                    0f:51:66:d4:3d:e2:b3:d6:2e:3e:9f:94:dd:4d:39:
                    ba:f1
                Exponent: 65537 (0x10001)
        X509v3 extensions:
            X509v3 Subject Key Identifier: 
                0F:65:16:31:5F:9E:C8:16:9C:4F:54:54:37:82:56:28:FE:18:9D:71
            X509v3 Authority Key Identifier: 
                keyid:0F:65:16:31:5F:9E:C8:16:9C:4F:54:54:37:82:56:28:FE:18:9D:71

            Authority Information Access: 
                CA Issuers - URI:http://url-for-aia/Root.cer

            X509v3 CRL Distribution Points: 

                Full Name:
                  URI:http://url-for-crl/Root.crl

            X509v3 Key Usage: critical
                Certificate Sign, CRL Sign
            X509v3 Basic Constraints: critical
                CA:TRUE
    Signature Algorithm: sha256WithRSAEncryption
         1d:1b:35:fa:ae:d4:94:be:d2:76:bc:5b:80:f6:db:48:c3:c7:
         eb:78:9d:ff:b6:fa:cf:15:e7:97:fc:74:d0:16:a4:20:5d:db:
         ab:87:8a:a3:ad:c7:79:cb:be:67:21:19:83:5b:0f:29:4e:1c:
         40:d6:fd:4a:b1:58:94:6d:5f:66:1e:3b:ab:62:5e:6f:e0:c0:
         95:a3:aa:cb:63:5a:7d:a8:dd:1b:4c:0b:49:24:b6:a1:b7:5a:
         c0:2c:8e:ca:5b:d8:df:3e:bf:c9:53:fd:22:26:d7:3d:7a:18:
         2e:04:ce:41:e1:9a:d6:ef:8e:20:c6:f7:e5:8a:7e:f0:07:e5:
         4f:76:d2:cb:0e:8a:6b:1c:c4:72:bf:06:d7:31:92:8e:3a:0b:
         0b:de:a3:56:29:3a:c7:f3:69:f4:87:b6:7d:45:10:f6:f7:75:
         35:fb:5e:3e:70:66:40:19:ef:48:1a:04:db:d5:d5:85:a3:0e:
         a7:27:93:af:3b:fd:6d:02:57:6c:d4:85:8a:1c:20:61:67:62:
         a1:24:a2:6d:04:df:cf:a9:22:30:6d:f6:20:3f:20:99:7d:7a:
         12:44:69:40:53:0f:72:b8:68:a3:2a:f0:d9:27:23:9d:18:0c:
         09:4c:6c:70:f4:00:62:6c:ec:f6:7b:63:a9:87:5e:73:1e:62:
         a4:96:ca:dc
-----BEGIN CERTIFICATE-----
MIIDeDCCAmCgAwIBAgIUJ0+2gXBA8cWylpwc2rC8J9U+c/YwDQYJKoZIhvcNAQEL
BQAwDzENMAsGA1UEAwwEUm9vdDAeFw0xNTAxMDExMjAwMDBaFw0xODAxMDExMjAw
MDBaMA8xDTALBgNVBAMMBFJvb3QwggEiMA0GCSqGSIb3DQEBAQUAA4IBDwAwggEK
AoIBAQDVwm8L9FbGj8Wz3Up9HtCUDru0cZiD1NSSESca3PNc6Ffbue4CHr7KtIHx
bZKmQMPggh/rfyBp2hKRxpZIcxj4QzU3yV2XM1yqmTKYk7VRBepPklepcNQFdogO
ahbS4GCRXy8NqH1IVLyaQWCb8hLdT7GB4vz4migjtdu7zhGdfpggj5ApIqxcKMUa
H5d+WlW+K8Ozg0daCn1rs8j/vRdoGaSxM+iZSq5eXK4GfdCFbNFPQGh6ossvm+tt
gjkHkYcDnoOWOcgGNE1h5wdE9eokirFD4xT9WUyiVI+cewplDz57Pzjb2HZ4KELb
taT9jw9RZtQ94rPWLj6flN1NObrxAgMBAAGjgcswgcgwHQYDVR0OBBYEFA9lFjFf
nsgWnE9UVDeCVij+GJ1xMB8GA1UdIwQYMBaAFA9lFjFfnsgWnE9UVDeCVij+GJ1x
MDcGCCsGAQUFBwEBBCswKTAnBggrBgEFBQcwAoYbaHR0cDovL3VybC1mb3ItYWlh
L1Jvb3QuY2VyMCwGA1UdHwQlMCMwIaAfoB2GG2h0dHA6Ly91cmwtZm9yLWNybC9S
b290LmNybDAOBgNVHQ8BAf8EBAMCAQYwDwYDVR0TAQH/BAUwAwEB/zANBgkqhkiG
9w0BAQsFAAOCAQEAHRs1+q7UlL7SdrxbgPbbSMPH63id/7b6zxXnl/x00BakIF3b
q4eKo63Hecu+ZyEZg1sPKU4cQNb9SrFYlG1fZh47q2Jeb+DAlaOqy2NafajdG0wL
SSS2obdawCyOylvY3z6/yVP9IibXPXoYLgTOQeGa1u+OIMb35Yp+8AflT3bSyw6K
axzEcr8G1zGSjjoLC96jVik6x/Np9Ie2fUUQ9vd1NftePnBmQBnvSBoE29XVhaMO
pyeTrzv9bQJXbNSFihwgYWdioSSibQTfz6kiMG32ID8gmX16EkRpQFMPcrhooyrw
2ScjnRgMCUxscPQAYmzs9ntjqYdecx5ipJbK3A==
-----END CERTIFICATE-----
