[Created by: ./generate-certs.py]

The target

Certificate:
    Data:
        Version: 3 (0x2)
        Serial Number:
            5b:3e:0e:db:9f:cd:52:41:f6:1b:73:c6:d3:42:52:13:8c:53:2e:68
        Signature Algorithm: sha256WithRSAEncryption
        Issuer: CN=Intermediate
        Validity
            Not Before: Jan  1 12:00:00 2015 GMT
            Not After : Jan  1 12:00:00 2018 GMT
        Subject: CN=Target
        Subject Public Key Info:
            Public Key Algorithm: rsaEncryption
                RSA Public-Key: (2048 bit)
                Modulus:
                    00:c0:fa:66:a5:8b:e8:ce:18:d1:ba:c0:7b:4f:37:
                    71:eb:31:3c:8d:01:fb:7b:0f:c8:ea:c4:48:2d:40:
                    55:84:7d:17:f0:6a:89:3a:aa:ca:d9:69:9e:41:79:
                    44:cf:bb:e8:47:7a:c3:9b:59:25:51:ec:a7:92:c9:
                    c7:99:e2:d9:dc:ff:6f:4b:60:38:c3:a0:a1:52:6b:
                    e4:05:2b:cf:1c:4b:02:f0:1e:b0:be:74:03:ae:67:
                    95:2c:29:a1:a8:59:48:83:c0:dc:49:e2:a1:27:be:
                    b0:6b:38:0d:fa:7c:f0:39:6e:fd:77:c3:5d:43:4f:
                    20:49:85:37:3d:dc:c2:8d:08:5e:d9:78:c7:07:16:
                    a5:18:0f:25:88:f8:9d:ef:97:1d:d2:0e:ff:58:c7:
                    a3:2e:fa:57:af:30:6d:d5:ef:0e:46:26:d7:2b:09:
                    f7:83:63:23:4e:9b:2e:e9:96:66:75:61:c1:53:c7:
                    58:45:c5:dd:c1:f6:33:49:bc:0b:02:75:af:ae:2a:
                    76:94:bd:0a:94:55:89:4a:ae:b4:a8:5e:4d:9c:30:
                    64:83:92:ce:dd:b3:85:ab:fa:b5:9c:fc:e7:b7:74:
                    b3:8c:27:67:8f:16:0c:59:23:36:dc:33:31:72:ab:
                    c3:60:dc:2f:4f:b6:f2:b1:6d:dc:4a:54:80:61:1f:
                    79:bf
                Exponent: 65537 (0x10001)
        X509v3 extensions:
            X509v3 Subject Key Identifier: 
                58:92:31:C9:C0:FE:40:35:B6:54:A4:F0:43:3B:F6:35:36:9D:39:08
            X509v3 Authority Key Identifier: 
                DirName:/CN=Root
                serial:27:4F:B6:81:70:40:F1:C5:B2:96:9C:1C:DA:B0:BC:27:D5:3E:73:F7

            Authority Information Access: 
                CA Issuers - URI:http://url-for-aia/Intermediate.cer

            X509v3 CRL Distribution Points: 

                Full Name:
                  URI:http://url-for-crl/Intermediate.crl

            X509v3 Key Usage: critical
                Digital Signature, Key Encipherment
            X509v3 Extended Key Usage: 
                TLS Web Server Authentication, TLS Web Client Authentication
    Signature Algorithm: sha256WithRSAEncryption
         0a:50:cc:c6:52:ae:d8:48:b6:9c:03:31:7b:63:10:19:17:f5:
         fc:69:ab:ec:60:d3:06:5f:b6:72:be:58:8a:d5:e9:80:87:f2:
         f9:c4:3a:2f:ab:28:16:5a:ba:6c:1c:92:c9:b5:25:0d:f3:f5:
         ea:7f:62:5a:9a:08:d3:13:a4:26:dd:40:10:78:64:e0:56:f3:
         67:14:92:74:09:3d:32:82:28:c4:bd:14:aa:df:63:bf:87:a6:
         ee:c6:b0:28:bf:2b:9f:89:af:66:c7:38:5a:96:2a:e6:4a:25:
         74:6f:0c:3e:ba:c1:76:57:52:d8:ad:15:df:1a:3c:16:e5:52:
         1e:a9:ad:b7:19:80:6a:5e:89:2c:ed:48:f6:39:f2:b3:c7:c5:
         96:f9:a3:ef:13:a2:17:c7:0f:8c:af:5e:39:c3:b0:d5:81:6f:
         fc:42:f5:69:72:50:5b:f7:80:d0:67:63:cb:d7:42:27:01:c4:
         cd:6d:af:55:df:97:f3:ae:d0:b9:cb:54:5f:c5:b9:ae:8f:bb:
         94:c4:07:0b:d0:b6:81:27:29:bb:d9:9f:49:72:47:48:51:47:
         36:e2:c7:a4:93:68:39:52:d4:0b:c9:45:63:41:27:15:1c:10:
         98:4c:38:47:2c:3d:28:4e:7f:72:b0:c4:5d:c5:de:7a:69:73:
         bb:95:65:23
-----BEGIN CERTIFICATE-----
MIIDtTCCAp2gAwIBAgIUWz4O25/NUkH2G3PG00JSE4xTLmgwDQYJKoZIhvcNAQEL
BQAwFzEVMBMGA1UEAwwMSW50ZXJtZWRpYXRlMB4XDTE1MDEwMTEyMDAwMFoXDTE4
MDEwMTEyMDAwMFowETEPMA0GA1UEAwwGVGFyZ2V0MIIBIjANBgkqhkiG9w0BAQEF
AAOCAQ8AMIIBCgKCAQEAwPpmpYvozhjRusB7Tzdx6zE8jQH7ew/I6sRILUBVhH0X
8GqJOqrK2WmeQXlEz7voR3rDm1klUeynksnHmeLZ3P9vS2A4w6ChUmvkBSvPHEsC
8B6wvnQDrmeVLCmhqFlIg8DcSeKhJ76wazgN+nzwOW79d8NdQ08gSYU3PdzCjQhe
2XjHBxalGA8liPid75cd0g7/WMejLvpXrzBt1e8ORibXKwn3g2MjTpsu6ZZmdWHB
U8dYRcXdwfYzSbwLAnWvrip2lL0KlFWJSq60qF5NnDBkg5LO3bOFq/q1nPznt3Sz
jCdnjxYMWSM23DMxcqvDYNwvT7bysW3cSlSAYR95vwIDAQABo4H+MIH7MB0GA1Ud
DgQWBBRYkjHJwP5ANbZUpPBDO/Y1Np05CDA0BgNVHSMELTAroROkETAPMQ0wCwYD
VQQDDARSb290ghQnT7aBcEDxxbKWnBzasLwn1T5z9zA/BggrBgEFBQcBAQQzMDEw
LwYIKwYBBQUHMAKGI2h0dHA6Ly91cmwtZm9yLWFpYS9JbnRlcm1lZGlhdGUuY2Vy
MDQGA1UdHwQtMCswKaAnoCWGI2h0dHA6Ly91cmwtZm9yLWNybC9JbnRlcm1lZGlh
dGUuY3JsMA4GA1UdDwEB/wQEAwIFoDAdBgNVHSUEFjAUBggrBgEFBQcDAQYIKwYB
BQUHAwIwDQYJKoZIhvcNAQELBQADggEBAApQzMZSrthItpwDMXtjEBkX9fxpq+xg
0wZftnK+WIrV6YCH8vnEOi+rKBZaumwcksm1JQ3z9ep/YlqaCNMTpCbdQBB4ZOBW
82cUknQJPTKCKMS9FKrfY7+Hpu7GsCi/K5+Jr2bHOFqWKuZKJXRvDD66wXZXUtit
Fd8aPBblUh6prbcZgGpeiSztSPY58rPHxZb5o+8TohfHD4yvXjnDsNWBb/xC9Wly
UFv3gNBnY8vXQicBxM1tr1Xfl/Ou0LnLVF/Fua6Pu5TEBwvQtoEnKbvZn0lyR0hR
Rzbix6STaDlS1AvJRWNBJxUcEJhMOEcsPShOf3KwxF3F3nppc7uVZSM=
-----END CERTIFICATE-----
