[Created by: generate-chains.py]

Certificate chain where the target certificate is signed using a weak RSA
key (512-bit modulus).

Certificate:
    Data:
        Version: 3 (0x2)
        Serial Number:
            73:1d:79:3f:16:15:f2:fa:19:a6:58:c1:bc:00:3c:16:5c:12:fe:f0
        Signature Algorithm: sha256WithRSAEncryption
        Issuer: CN=Intermediate
        Validity
            Not Before: Oct  5 12:00:00 2021 GMT
            Not After : Oct  5 12:00:00 2022 GMT
        Subject: CN=Target
        Subject Public Key Info:
            Public Key Algorithm: rsaEncryption
                RSA Public-Key: (2048 bit)
                Modulus:
                    00:f2:42:db:44:b2:6b:f2:0a:41:04:53:7d:0b:34:
                    a4:fe:8d:d5:3a:ff:e5:a9:0c:5d:e4:2d:69:fe:e3:
                    dd:8a:47:2f:e8:9e:5a:54:ab:0b:95:84:16:af:fa:
                    29:11:43:5c:c9:59:15:30:59:77:bb:62:dd:d6:e4:
                    27:3a:bf:a9:82:cb:b8:f4:3c:5c:1d:74:87:8d:57:
                    af:0a:69:91:68:b4:aa:f6:14:8b:25:14:60:68:c9:
                    8d:56:09:06:a6:ad:12:8a:cb:05:33:b0:1e:11:03:
                    52:bf:af:7d:87:b0:97:22:fb:5a:f4:ea:5b:14:56:
                    cc:ad:03:2a:da:75:59:35:8b:88:3a:b7:66:3b:18:
                    a8:7c:c4:29:4f:66:ac:da:1f:ba:ec:ef:fc:55:01:
                    1e:31:7a:af:ca:5c:5d:cf:73:49:2f:50:b9:0d:3b:
                    4c:0c:d9:b0:d6:25:86:ea:3d:4d:ea:de:3b:9c:2a:
                    79:b3:c6:13:9a:bb:22:53:62:7c:a9:05:a6:a3:c7:
                    f5:28:72:24:c0:d6:ec:6f:66:eb:5a:85:91:5e:cd:
                    a5:95:cc:9f:60:88:a1:bc:95:33:1f:f4:8f:99:68:
                    56:64:39:4c:a4:df:f3:41:10:14:50:e5:ba:42:e5:
                    c6:ec:50:37:44:26:de:0d:28:71:b8:63:bb:38:7e:
                    04:a9
                Exponent: 65537 (0x10001)
        X509v3 extensions:
            X509v3 Subject Key Identifier: 
                78:F8:8D:81:56:D4:CD:CF:11:9F:9E:DD:3D:6C:F2:07:FE:0F:37:7D
            X509v3 Authority Key Identifier: 
                keyid:E9:D8:44:8D:24:EE:A1:82:18:6F:21:FA:4E:EC:FB:DF:D1:91:57:9D

            Authority Information Access: 
                CA Issuers - URI:http://url-for-aia/Intermediate.cer

            X509v3 CRL Distribution Points: 

                Full Name:
                  URI:http://url-for-crl/Intermediate.crl

            X509v3 Key Usage: critical
                Digital Signature, Key Encipherment
            X509v3 Extended Key Usage: 
                TLS Web Server Authentication, TLS Web Client Authentication
    Signature Algorithm: sha256WithRSAEncryption
         73:a5:fd:61:cc:8d:7a:32:37:84:d8:e6:70:7e:df:30:2d:b3:
         b5:31:dd:66:e6:bd:7b:1f:36:c3:b9:7a:9d:ca:6c:01:25:92:
         3d:7e:8a:9f:c4:11:76:f7:a1:07:83:b2:5b:29:04:58:e0:6b:
         4f:10:97:69:ff:14:7e:e4:c4:0b
-----BEGIN CERTIFICATE-----
MIIC3jCCAoigAwIBAgIUcx15PxYV8voZpljBvAA8FlwS/vAwDQYJKoZIhvcNAQEL
BQAwFzEVMBMGA1UEAwwMSW50ZXJtZWRpYXRlMB4XDTIxMTAwNTEyMDAwMFoXDTIy
MTAwNTEyMDAwMFowETEPMA0GA1UEAwwGVGFyZ2V0MIIBIjANBgkqhkiG9w0BAQEF
AAOCAQ8AMIIBCgKCAQEA8kLbRLJr8gpBBFN9CzSk/o3VOv/lqQxd5C1p/uPdikcv
6J5aVKsLlYQWr/opEUNcyVkVMFl3u2Ld1uQnOr+pgsu49DxcHXSHjVevCmmRaLSq
9hSLJRRgaMmNVgkGpq0SissFM7AeEQNSv699h7CXIvta9OpbFFbMrQMq2nVZNYuI
OrdmOxiofMQpT2as2h+67O/8VQEeMXqvylxdz3NJL1C5DTtMDNmw1iWG6j1N6t47
nCp5s8YTmrsiU2J8qQWmo8f1KHIkwNbsb2brWoWRXs2llcyfYIihvJUzH/SPmWhW
ZDlMpN/zQRAUUOW6QuXG7FA3RCbeDShxuGO7OH4EqQIDAQABo4HpMIHmMB0GA1Ud
DgQWBBR4+I2BVtTNzxGfnt09bPIH/g83fTAfBgNVHSMEGDAWgBTp2ESNJO6hghhv
IfpO7Pvf0ZFXnTA/BggrBgEFBQcBAQQzMDEwLwYIKwYBBQUHMAKGI2h0dHA6Ly91
cmwtZm9yLWFpYS9JbnRlcm1lZGlhdGUuY2VyMDQGA1UdHwQtMCswKaAnoCWGI2h0
dHA6Ly91cmwtZm9yLWNybC9JbnRlcm1lZGlhdGUuY3JsMA4GA1UdDwEB/wQEAwIF
oDAdBgNVHSUEFjAUBggrBgEFBQcDAQYIKwYBBQUHAwIwDQYJKoZIhvcNAQELBQAD
QQBzpf1hzI16MjeE2OZwft8wLbO1Md1m5r17HzbDuXqdymwBJZI9foqfxBF296EH
g7JbKQRY4GtPEJdp/xR+5MQL
-----END CERTIFICATE-----

Certificate:
    Data:
        Version: 3 (0x2)
        Serial Number:
            1d:a9:8e:36:2e:87:ea:b5:92:e3:42:05:50:07:2b:bc:5f:13:0d:64
        Signature Algorithm: sha256WithRSAEncryption
        Issuer: CN=Root
        Validity
            Not Before: Oct  5 12:00:00 2021 GMT
            Not After : Oct  5 12:00:00 2022 GMT
        Subject: CN=Intermediate
        Subject Public Key Info:
            Public Key Algorithm: rsaEncryption
                RSA Public-Key: (512 bit)
                Modulus:
                    00:d5:13:bb:52:bf:ca:19:1a:06:19:68:07:1d:e6:
                    87:16:d3:f0:e0:12:ba:a2:b5:2a:3d:ed:b3:64:16:
                    06:a3:50:fc:b0:a4:49:f2:f9:ab:34:ad:4f:db:0a:
                    3d:2b:25:92:86:3f:94:df:fb:fc:54:f2:c7:6d:9e:
                    d2:10:e0:cd:0d
                Exponent: 65537 (0x10001)
        X509v3 extensions:
            X509v3 Subject Key Identifier: 
                E9:D8:44:8D:24:EE:A1:82:18:6F:21:FA:4E:EC:FB:DF:D1:91:57:9D
            X509v3 Authority Key Identifier: 
                keyid:BE:33:72:47:C2:B1:97:41:99:C0:31:57:52:56:0C:B5:53:78:5A:A4

            Authority Information Access: 
                CA Issuers - URI:http://url-for-aia/Root.cer

            X509v3 CRL Distribution Points: 

                Full Name:
                  URI:http://url-for-crl/Root.crl

            X509v3 Key Usage: critical
                Certificate Sign, CRL Sign
            X509v3 Basic Constraints: critical
                CA:TRUE
    Signature Algorithm: sha256WithRSAEncryption
         9c:90:c3:6a:14:6d:3c:2c:21:37:40:b3:8e:57:c7:89:f0:28:
         90:73:52:d8:e9:af:cf:46:47:95:5b:56:ed:c7:a5:6c:bb:c8:
         e2:fc:60:7b:c2:fd:61:96:52:86:28:8e:c3:b5:b0:8b:e8:47:
         0f:cc:b9:2f:dc:1c:6b:d3:e6:0b:cf:7b:f9:c1:95:1a:cc:54:
         9c:90:78:37:cc:2b:1a:b4:c9:97:86:b0:76:95:21:f6:96:c1:
         74:1d:39:da:bd:b5:f4:1e:0d:7e:9c:11:41:a4:fc:68:60:6d:
         da:82:d3:37:66:bb:44:1b:9c:38:ad:b5:04:cd:0c:66:54:a0:
         09:e2:29:25:2e:c3:c4:f5:5c:2a:86:71:49:f4:c4:c8:2d:e0:
         9e:c0:31:40:e2:b9:47:de:6b:68:fe:cc:26:3e:41:ca:9c:de:
         f6:19:69:08:2a:d6:fe:09:ea:28:72:00:b6:3f:1b:6c:39:84:
         f1:ec:44:bd:4d:77:ab:b5:9f:98:1d:79:a4:91:2e:64:50:89:
         66:28:b9:aa:e9:64:4b:26:ce:51:87:0e:73:8e:d9:46:1b:65:
         b1:d4:45:16:f7:88:f0:d6:d3:a0:ad:63:10:d0:2d:36:37:16:
         7c:85:66:2a:90:15:c9:e2:05:8a:06:3b:b3:c4:c0:39:57:37:
         94:73:c3:73
-----BEGIN CERTIFICATE-----
MIICuDCCAaCgAwIBAgIUHamONi6H6rWS40IFUAcrvF8TDWQwDQYJKoZIhvcNAQEL
BQAwDzENMAsGA1UEAwwEUm9vdDAeFw0yMTEwMDUxMjAwMDBaFw0yMjEwMDUxMjAw
MDBaMBcxFTATBgNVBAMMDEludGVybWVkaWF0ZTBcMA0GCSqGSIb3DQEBAQUAA0sA
MEgCQQDVE7tSv8oZGgYZaAcd5ocW0/DgErqitSo97bNkFgajUPywpEny+as0rU/b
Cj0rJZKGP5Tf+/xU8sdtntIQ4M0NAgMBAAGjgcswgcgwHQYDVR0OBBYEFOnYRI0k
7qGCGG8h+k7s+9/RkVedMB8GA1UdIwQYMBaAFL4zckfCsZdBmcAxV1JWDLVTeFqk
MDcGCCsGAQUFBwEBBCswKTAnBggrBgEFBQcwAoYbaHR0cDovL3VybC1mb3ItYWlh
L1Jvb3QuY2VyMCwGA1UdHwQlMCMwIaAfoB2GG2h0dHA6Ly91cmwtZm9yLWNybC9S
b290LmNybDAOBgNVHQ8BAf8EBAMCAQYwDwYDVR0TAQH/BAUwAwEB/zANBgkqhkiG
9w0BAQsFAAOCAQEAnJDDahRtPCwhN0CzjlfHifAokHNS2Omvz0ZHlVtW7celbLvI
4vxge8L9YZZShiiOw7Wwi+hHD8y5L9wca9PmC897+cGVGsxUnJB4N8wrGrTJl4aw
dpUh9pbBdB052r219B4NfpwRQaT8aGBt2oLTN2a7RBucOK21BM0MZlSgCeIpJS7D
xPVcKoZxSfTEyC3gnsAxQOK5R95raP7MJj5Bypze9hlpCCrW/gnqKHIAtj8bbDmE
8exEvU13q7WfmB15pJEuZFCJZii5qulkSybOUYcOc47ZRhtlsdRFFveI8NbToK1j
ENAtNjcWfIVmKpAVyeIFigY7s8TAOVc3lHPDcw==
-----END CERTIFICATE-----

Certificate:
    Data:
        Version: 3 (0x2)
        Serial Number:
            1d:a9:8e:36:2e:87:ea:b5:92:e3:42:05:50:07:2b:bc:5f:13:0d:63
        Signature Algorithm: sha256WithRSAEncryption
        Issuer: CN=Root
        Validity
            Not Before: Oct  5 12:00:00 2021 GMT
            Not After : Oct  5 12:00:00 2022 GMT
        Subject: CN=Root
        Subject Public Key Info:
            Public Key Algorithm: rsaEncryption
                RSA Public-Key: (2048 bit)
                Modulus:
                    00:ca:3f:f8:1f:42:8f:55:98:f8:9f:fb:94:03:42:
                    2a:c1:42:3a:2b:2a:f3:54:14:f3:fe:67:25:24:d3:
                    9a:7f:66:1a:60:0b:9d:d8:bd:65:71:b5:f5:d9:fe:
                    eb:f6:04:72:57:97:bc:23:b0:be:bd:ce:94:9e:58:
                    1a:10:e7:33:09:0b:57:a8:1c:6f:fa:f7:ce:d1:31:
                    34:90:1a:b4:60:2d:d2:7f:29:9b:4e:ec:f4:6e:99:
                    21:6b:98:9c:90:09:fc:bd:2f:55:c3:34:38:48:4a:
                    73:fe:58:e2:09:b9:d9:f9:53:f6:84:e2:5d:fc:eb:
                    3c:ba:92:f5:bc:97:cc:ef:43:54:f7:4f:c9:b4:2c:
                    86:95:32:a6:e8:91:f5:8e:31:f8:de:b5:d9:c9:3d:
                    4d:d7:24:4c:8c:58:aa:8a:c5:79:ab:e7:cd:3b:5c:
                    84:67:52:5a:88:33:c3:55:d5:a9:2e:c9:5b:61:7c:
                    87:05:c1:0b:d7:19:4a:fe:bd:ba:af:d7:e5:70:d1:
                    a4:92:08:d2:f2:ca:2b:b1:94:d0:84:57:f9:30:92:
                    fc:3a:67:82:10:6e:e3:89:9f:b3:df:75:6e:99:46:
                    bd:ce:b1:e8:ac:a2:3b:21:80:da:11:13:bd:df:93:
                    0e:0e:ee:5d:f5:39:a2:a8:f7:41:c8:cb:00:5c:ac:
                    ee:b1
                Exponent: 65537 (0x10001)
        X509v3 extensions:
            X509v3 Subject Key Identifier: 
                BE:33:72:47:C2:B1:97:41:99:C0:31:57:52:56:0C:B5:53:78:5A:A4
            X509v3 Authority Key Identifier: 
                keyid:BE:33:72:47:C2:B1:97:41:99:C0:31:57:52:56:0C:B5:53:78:5A:A4

            Authority Information Access: 
                CA Issuers - URI:http://url-for-aia/Root.cer

            X509v3 CRL Distribution Points: 

                Full Name:
                  URI:http://url-for-crl/Root.crl

            X509v3 Key Usage: critical
                Certificate Sign, CRL Sign
            X509v3 Basic Constraints: critical
                CA:TRUE
    Signature Algorithm: sha256WithRSAEncryption
         0e:b0:03:7c:77:94:40:3a:ef:ac:01:43:e5:78:d5:4f:27:a7:
         41:d4:83:01:d1:f4:cb:02:06:96:26:6e:53:88:2a:78:ac:9f:
         77:04:1f:fa:1c:57:a2:af:c9:d8:5d:f0:9f:e6:c6:47:a6:2a:
         61:bb:22:3a:73:65:ad:ae:c3:e2:79:e8:87:01:de:96:f7:ad:
         d9:db:b6:9b:77:d4:e0:96:45:d8:3e:1e:2f:c1:1b:e7:0e:de:
         4e:58:42:11:00:fd:6e:b8:53:9a:8f:9f:5e:f0:2c:84:bc:3f:
         41:5a:f2:96:0f:b3:fd:35:10:21:d4:27:ed:c9:8c:d5:d0:c8:
         b7:09:cb:d5:50:64:ff:dc:a3:86:7c:56:0f:58:bf:0b:5f:55:
         64:43:c5:df:e3:fa:96:2b:ac:15:fc:12:53:01:19:da:61:47:
         1d:28:d1:3b:18:4d:4c:78:49:a3:2e:eb:5f:0d:b7:71:f1:74:
         94:7d:1e:df:97:3b:96:cd:25:38:86:0d:66:a2:b6:2f:7a:4d:
         77:c6:70:f3:7b:a1:0e:01:84:e6:19:cc:b9:c0:e1:07:10:36:
         9a:b0:f9:0a:6b:22:a6:c0:18:3d:c8:34:86:34:d3:14:e2:c6:
         a9:c7:7b:07:b2:6c:a1:14:6b:a0:70:01:6c:ab:ff:0a:08:f4:
         ab:8d:05:09
-----BEGIN CERTIFICATE-----
MIIDeDCCAmCgAwIBAgIUHamONi6H6rWS40IFUAcrvF8TDWMwDQYJKoZIhvcNAQEL
BQAwDzENMAsGA1UEAwwEUm9vdDAeFw0yMTEwMDUxMjAwMDBaFw0yMjEwMDUxMjAw
MDBaMA8xDTALBgNVBAMMBFJvb3QwggEiMA0GCSqGSIb3DQEBAQUAA4IBDwAwggEK
AoIBAQDKP/gfQo9VmPif+5QDQirBQjorKvNUFPP+ZyUk05p/ZhpgC53YvWVxtfXZ
/uv2BHJXl7wjsL69zpSeWBoQ5zMJC1eoHG/6987RMTSQGrRgLdJ/KZtO7PRumSFr
mJyQCfy9L1XDNDhISnP+WOIJudn5U/aE4l386zy6kvW8l8zvQ1T3T8m0LIaVMqbo
kfWOMfjetdnJPU3XJEyMWKqKxXmr5807XIRnUlqIM8NV1akuyVthfIcFwQvXGUr+
vbqv1+Vw0aSSCNLyyiuxlNCEV/kwkvw6Z4IQbuOJn7PfdW6ZRr3OseisojshgNoR
E73fkw4O7l31OaKo90HIywBcrO6xAgMBAAGjgcswgcgwHQYDVR0OBBYEFL4zckfC
sZdBmcAxV1JWDLVTeFqkMB8GA1UdIwQYMBaAFL4zckfCsZdBmcAxV1JWDLVTeFqk
MDcGCCsGAQUFBwEBBCswKTAnBggrBgEFBQcwAoYbaHR0cDovL3VybC1mb3ItYWlh
L1Jvb3QuY2VyMCwGA1UdHwQlMCMwIaAfoB2GG2h0dHA6Ly91cmwtZm9yLWNybC9S
b290LmNybDAOBgNVHQ8BAf8EBAMCAQYwDwYDVR0TAQH/BAUwAwEB/zANBgkqhkiG
9w0BAQsFAAOCAQEADrADfHeUQDrvrAFD5XjVTyenQdSDAdH0ywIGliZuU4gqeKyf
dwQf+hxXoq/J2F3wn+bGR6YqYbsiOnNlra7D4nnohwHelvet2du2m3fU4JZF2D4e
L8Eb5w7eTlhCEQD9brhTmo+fXvAshLw/QVrylg+z/TUQIdQn7cmM1dDItwnL1VBk
/9yjhnxWD1i/C19VZEPF3+P6liusFfwSUwEZ2mFHHSjROxhNTHhJoy7rXw23cfF0
lH0e35c7ls0lOIYNZqK2L3pNd8Zw83uhDgGE5hnMucDhBxA2mrD5CmsipsAYPcg0
hjTTFOLGqcd7B7JsoRRroHABbKv/Cgj0q40FCQ==
-----END CERTIFICATE-----
