[Created by: generate-chains.py]

Valid certificate chain where the target certificate contains a public key
with a 512-bit modulus (weak).

Certificate:
    Data:
        Version: 3 (0x2)
        Serial Number:
            67:e6:43:1c:a1:b5:ee:5f:34:22:dc:ea:e2:6b:c2:18:43:17:fb:dd
        Signature Algorithm: sha256WithRSAEncryption
        Issuer: CN=Intermediate
        Validity
            Not Before: Oct  5 12:00:00 2021 GMT
            Not After : Oct  5 12:00:00 2022 GMT
        Subject: CN=Target
        Subject Public Key Info:
            Public Key Algorithm: rsaEncryption
                RSA Public-Key: (512 bit)
                Modulus:
                    00:d5:13:bb:52:bf:ca:19:1a:06:19:68:07:1d:e6:
                    87:16:d3:f0:e0:12:ba:a2:b5:2a:3d:ed:b3:64:16:
                    06:a3:50:fc:b0:a4:49:f2:f9:ab:34:ad:4f:db:0a:
                    3d:2b:25:92:86:3f:94:df:fb:fc:54:f2:c7:6d:9e:
                    d2:10:e0:cd:0d
                Exponent: 65537 (0x10001)
        X509v3 extensions:
            X509v3 Subject Key Identifier: 
                E9:D8:44:8D:24:EE:A1:82:18:6F:21:FA:4E:EC:FB:DF:D1:91:57:9D
            X509v3 Authority Key Identifier: 
                keyid:CC:47:D8:FF:8B:67:33:FB:F5:CD:D0:A7:B6:12:A0:19:27:27:D1:57

            Authority Information Access: 
                CA Issuers - URI:http://url-for-aia/Intermediate.cer

            X509v3 CRL Distribution Points: 

                Full Name:
                  URI:http://url-for-crl/Intermediate.crl

            X509v3 Key Usage: critical
                Digital Signature, Key Encipherment
            X509v3 Extended Key Usage: 
                TLS Web Server Authentication, TLS Web Client Authentication
    Signature Algorithm: sha256WithRSAEncryption
         ae:21:58:ab:33:36:c9:86:ae:4b:d6:74:08:a5:7d:f5:14:f3:
         98:05:b3:28:1b:6c:b5:a4:de:4b:3a:32:6a:b1:97:16:c5:37:
         dc:25:d5:01:cb:dc:b0:29:86:15:a3:2a:b6:4e:1b:46:b4:30:
         e5:b7:63:b5:2a:6e:31:d7:b8:ec:98:9b:0c:8d:66:87:94:54:
         54:82:36:21:55:f6:ff:73:c9:25:5a:35:48:4f:dd:c7:31:2f:
         42:55:59:9a:0b:e4:6e:49:eb:ef:77:53:27:bb:72:b0:e6:97:
         41:a0:9e:a3:a5:83:32:dd:a5:4a:37:d9:c0:0e:49:84:21:73:
         8c:ae:b2:44:df:18:e3:58:dd:fa:d7:f2:2f:1a:9f:67:ca:45:
         08:5f:53:78:f3:88:76:52:fb:bd:5a:1e:bf:86:d6:0c:ec:1c:
         1c:1d:c5:9a:3d:26:03:c2:a8:32:b4:2b:f9:d0:0d:80:5f:8f:
         5c:e1:a0:29:be:bc:2b:9a:92:bf:7b:8a:f6:7c:d0:00:bd:a6:
         72:73:9c:70:80:04:18:1d:9b:2c:6f:6e:80:67:8f:10:fc:f1:
         1c:ed:fb:aa:39:53:28:78:35:86:a0:7c:02:50:ef:ab:a6:0e:
         b8:e5:ac:f4:76:82:ab:cc:b4:5b:94:3e:3e:8e:7e:34:1f:fe:
         d5:48:37:ed
-----BEGIN CERTIFICATE-----
MIIC2DCCAcCgAwIBAgIUZ+ZDHKG17l80Itzq4mvCGEMX+90wDQYJKoZIhvcNAQEL
BQAwFzEVMBMGA1UEAwwMSW50ZXJtZWRpYXRlMB4XDTIxMTAwNTEyMDAwMFoXDTIy
MTAwNTEyMDAwMFowETEPMA0GA1UEAwwGVGFyZ2V0MFwwDQYJKoZIhvcNAQEBBQAD
SwAwSAJBANUTu1K/yhkaBhloBx3mhxbT8OASuqK1Kj3ts2QWBqNQ/LCkSfL5qzSt
T9sKPSslkoY/lN/7/FTyx22e0hDgzQ0CAwEAAaOB6TCB5jAdBgNVHQ4EFgQU6dhE
jSTuoYIYbyH6Tuz739GRV50wHwYDVR0jBBgwFoAUzEfY/4tnM/v1zdCnthKgGScn
0VcwPwYIKwYBBQUHAQEEMzAxMC8GCCsGAQUFBzAChiNodHRwOi8vdXJsLWZvci1h
aWEvSW50ZXJtZWRpYXRlLmNlcjA0BgNVHR8ELTArMCmgJ6AlhiNodHRwOi8vdXJs
LWZvci1jcmwvSW50ZXJtZWRpYXRlLmNybDAOBgNVHQ8BAf8EBAMCBaAwHQYDVR0l
BBYwFAYIKwYBBQUHAwEGCCsGAQUFBwMCMA0GCSqGSIb3DQEBCwUAA4IBAQCuIVir
MzbJhq5L1nQIpX31FPOYBbMoG2y1pN5LOjJqsZcWxTfcJdUBy9ywKYYVoyq2ThtG
tDDlt2O1Km4x17jsmJsMjWaHlFRUgjYhVfb/c8klWjVIT93HMS9CVVmaC+RuSevv
d1Mnu3Kw5pdBoJ6jpYMy3aVKN9nADkmEIXOMrrJE3xjjWN361/IvGp9nykUIX1N4
84h2Uvu9Wh6/htYM7BwcHcWaPSYDwqgytCv50A2AX49c4aApvrwrmpK/e4r2fNAA
vaZyc5xwgAQYHZssb26AZ48Q/PEc7fuqOVMoeDWGoHwCUO+rpg645az0doKrzLRb
lD4+jn40H/7VSDft
-----END CERTIFICATE-----

Certificate:
    Data:
        Version: 3 (0x2)
        Serial Number:
            4e:42:88:cd:72:5f:2b:00:a2:67:88:f3:ee:8d:e7:a5:6b:77:3c:c6
        Signature Algorithm: sha256WithRSAEncryption
        Issuer: CN=Root
        Validity
            Not Before: Oct  5 12:00:00 2021 GMT
            Not After : Oct  5 12:00:00 2022 GMT
        Subject: CN=Intermediate
        Subject Public Key Info:
            Public Key Algorithm: rsaEncryption
                RSA Public-Key: (2048 bit)
                Modulus:
                    00:bf:5d:ac:94:a4:6d:90:41:e2:b8:a8:23:44:d3:
                    0b:a0:16:0f:a9:d1:86:a6:7d:16:1b:0a:74:78:ef:
                    7e:fd:66:74:8d:d7:9e:d4:6b:ec:82:a7:18:59:1b:
                    a6:36:7d:b3:69:ac:5d:70:74:88:37:49:2a:5b:d2:
                    eb:db:56:de:54:f7:35:5a:3c:b6:b2:69:23:c5:f6:
                    73:95:78:80:8c:62:95:0d:2f:8d:0e:64:e2:66:2a:
                    05:7e:fd:70:23:ad:00:39:6d:2d:33:a7:00:af:37:
                    74:41:bf:67:49:bd:51:c1:54:c8:d3:1e:87:f1:87:
                    13:7a:c0:e4:20:52:15:fc:f1:4c:9e:84:30:72:93:
                    df:0e:71:94:54:7c:12:4e:4a:31:a6:77:94:8b:98:
                    35:02:fa:1f:aa:e8:51:c6:a6:6c:b9:40:3b:2d:a3:
                    3f:01:33:7d:5b:60:b3:db:12:cc:1c:a1:7f:94:4b:
                    3b:b8:2a:13:a2:da:d4:cb:5a:b7:a9:60:90:19:b5:
                    d2:83:c0:a2:84:52:44:61:1f:26:ff:3e:e2:43:32:
                    15:a4:96:33:34:3b:7c:90:4b:f0:db:7d:e8:f4:34:
                    65:60:e1:09:06:5a:1c:8a:89:6c:cc:cc:81:c7:e5:
                    d5:56:24:d6:6f:a1:2c:c8:9f:77:ab:8b:17:0b:98:
                    fe:c5
                Exponent: 65537 (0x10001)
        X509v3 extensions:
            X509v3 Subject Key Identifier: 
                CC:47:D8:FF:8B:67:33:FB:F5:CD:D0:A7:B6:12:A0:19:27:27:D1:57
            X509v3 Authority Key Identifier: 
                keyid:BE:33:72:47:C2:B1:97:41:99:C0:31:57:52:56:0C:B5:53:78:5A:A4

            Authority Information Access: 
                CA Issuers - URI:http://url-for-aia/Root.cer

            X509v3 CRL Distribution Points: 

                Full Name:
                  URI:http://url-for-crl/Root.crl

            X509v3 Key Usage: critical
                Certificate Sign, CRL Sign
            X509v3 Basic Constraints: critical
                CA:TRUE
    Signature Algorithm: sha256WithRSAEncryption
         9c:f6:dc:5c:26:04:37:cc:b7:75:48:e5:3a:7a:ca:41:f1:99:
         09:9e:82:04:24:c7:98:28:5b:7c:fc:bd:03:42:53:ec:f3:e9:
         50:7d:18:44:74:75:8a:e3:63:91:36:36:b2:48:06:b5:91:9d:
         89:1d:83:a6:b9:91:a4:09:11:60:95:3e:5b:d2:50:ca:fc:42:
         1f:3c:6b:6b:f1:bf:5a:5b:32:fb:1a:b5:c7:85:6b:13:af:5d:
         75:6b:3c:c7:40:a5:4d:c5:23:de:48:cf:82:86:77:49:ee:77:
         25:8e:7a:23:ed:c7:1c:84:0d:49:6a:4b:3f:9a:f2:2e:75:70:
         a0:b5:28:9a:a8:24:25:0d:25:ba:08:92:f1:65:81:95:b4:b1:
         34:72:66:b0:1b:0e:80:27:a5:7d:c5:ed:dc:3f:71:75:4a:b5:
         67:1e:d1:b2:54:57:4f:29:a4:7c:1d:4d:59:3e:c9:5f:c0:33:
         f7:04:9b:96:d2:22:96:ec:00:29:4c:7f:7e:7c:3a:ca:f2:6b:
         a2:39:ac:cc:c7:07:3c:1e:aa:df:2d:4b:95:b6:cb:b6:c7:41:
         46:38:7f:08:ae:3e:6d:23:81:40:63:b1:ae:8d:42:32:1a:ed:
         b0:71:bd:ec:76:2b:4c:ff:a0:28:1b:42:f2:3f:ed:e2:63:fb:
         db:c9:c6:14
-----BEGIN CERTIFICATE-----
MIIDgDCCAmigAwIBAgIUTkKIzXJfKwCiZ4jz7o3npWt3PMYwDQYJKoZIhvcNAQEL
BQAwDzENMAsGA1UEAwwEUm9vdDAeFw0yMTEwMDUxMjAwMDBaFw0yMjEwMDUxMjAw
MDBaMBcxFTATBgNVBAMMDEludGVybWVkaWF0ZTCCASIwDQYJKoZIhvcNAQEBBQAD
ggEPADCCAQoCggEBAL9drJSkbZBB4rioI0TTC6AWD6nRhqZ9FhsKdHjvfv1mdI3X
ntRr7IKnGFkbpjZ9s2msXXB0iDdJKlvS69tW3lT3NVo8trJpI8X2c5V4gIxilQ0v
jQ5k4mYqBX79cCOtADltLTOnAK83dEG/Z0m9UcFUyNMeh/GHE3rA5CBSFfzxTJ6E
MHKT3w5xlFR8Ek5KMaZ3lIuYNQL6H6roUcambLlAOy2jPwEzfVtgs9sSzByhf5RL
O7gqE6La1Mtat6lgkBm10oPAooRSRGEfJv8+4kMyFaSWMzQ7fJBL8Nt96PQ0ZWDh
CQZaHIqJbMzMgcfl1VYk1m+hLMifd6uLFwuY/sUCAwEAAaOByzCByDAdBgNVHQ4E
FgQUzEfY/4tnM/v1zdCnthKgGScn0VcwHwYDVR0jBBgwFoAUvjNyR8Kxl0GZwDFX
UlYMtVN4WqQwNwYIKwYBBQUHAQEEKzApMCcGCCsGAQUFBzAChhtodHRwOi8vdXJs
LWZvci1haWEvUm9vdC5jZXIwLAYDVR0fBCUwIzAhoB+gHYYbaHR0cDovL3VybC1m
b3ItY3JsL1Jvb3QuY3JsMA4GA1UdDwEB/wQEAwIBBjAPBgNVHRMBAf8EBTADAQH/
MA0GCSqGSIb3DQEBCwUAA4IBAQCc9txcJgQ3zLd1SOU6espB8ZkJnoIEJMeYKFt8
/L0DQlPs8+lQfRhEdHWK42ORNjaySAa1kZ2JHYOmuZGkCRFglT5b0lDK/EIfPGtr
8b9aWzL7GrXHhWsTr111azzHQKVNxSPeSM+ChndJ7ncljnoj7ccchA1Jaks/mvIu
dXCgtSiaqCQlDSW6CJLxZYGVtLE0cmawGw6AJ6V9xe3cP3F1SrVnHtGyVFdPKaR8
HU1ZPslfwDP3BJuW0iKW7AApTH9+fDrK8muiOazMxwc8HqrfLUuVtsu2x0FGOH8I
rj5tI4FAY7GujUIyGu2wcb3sditM/6AoG0LyP+3iY/vbycYU
-----END CERTIFICATE-----

Certificate:
    Data:
        Version: 3 (0x2)
        Serial Number:
            4e:42:88:cd:72:5f:2b:00:a2:67:88:f3:ee:8d:e7:a5:6b:77:3c:c5
        Signature Algorithm: sha256WithRSAEncryption
        Issuer: CN=Root
        Validity
            Not Before: Oct  5 12:00:00 2021 GMT
            Not After : Oct  5 12:00:00 2022 GMT
        Subject: CN=Root
        Subject Public Key Info:
            Public Key Algorithm: rsaEncryption
                RSA Public-Key: (2048 bit)
                Modulus:
                    00:ca:3f:f8:1f:42:8f:55:98:f8:9f:fb:94:03:42:
                    2a:c1:42:3a:2b:2a:f3:54:14:f3:fe:67:25:24:d3:
                    9a:7f:66:1a:60:0b:9d:d8:bd:65:71:b5:f5:d9:fe:
                    eb:f6:04:72:57:97:bc:23:b0:be:bd:ce:94:9e:58:
                    1a:10:e7:33:09:0b:57:a8:1c:6f:fa:f7:ce:d1:31:
                    34:90:1a:b4:60:2d:d2:7f:29:9b:4e:ec:f4:6e:99:
                    21:6b:98:9c:90:09:fc:bd:2f:55:c3:34:38:48:4a:
                    73:fe:58:e2:09:b9:d9:f9:53:f6:84:e2:5d:fc:eb:
                    3c:ba:92:f5:bc:97:cc:ef:43:54:f7:4f:c9:b4:2c:
                    86:95:32:a6:e8:91:f5:8e:31:f8:de:b5:d9:c9:3d:
                    4d:d7:24:4c:8c:58:aa:8a:c5:79:ab:e7:cd:3b:5c:
                    84:67:52:5a:88:33:c3:55:d5:a9:2e:c9:5b:61:7c:
                    87:05:c1:0b:d7:19:4a:fe:bd:ba:af:d7:e5:70:d1:
                    a4:92:08:d2:f2:ca:2b:b1:94:d0:84:57:f9:30:92:
                    fc:3a:67:82:10:6e:e3:89:9f:b3:df:75:6e:99:46:
                    bd:ce:b1:e8:ac:a2:3b:21:80:da:11:13:bd:df:93:
                    0e:0e:ee:5d:f5:39:a2:a8:f7:41:c8:cb:00:5c:ac:
                    ee:b1
                Exponent: 65537 (0x10001)
        X509v3 extensions:
            X509v3 Subject Key Identifier: 
                BE:33:72:47:C2:B1:97:41:99:C0:31:57:52:56:0C:B5:53:78:5A:A4
            X509v3 Authority Key Identifier: 
                keyid:BE:33:72:47:C2:B1:97:41:99:C0:31:57:52:56:0C:B5:53:78:5A:A4

            Authority Information Access: 
                CA Issuers - URI:http://url-for-aia/Root.cer

            X509v3 CRL Distribution Points: 

                Full Name:
                  URI:http://url-for-crl/Root.crl

            X509v3 Key Usage: critical
                Certificate Sign, CRL Sign
            X509v3 Basic Constraints: critical
                CA:TRUE
    Signature Algorithm: sha256WithRSAEncryption
         79:71:89:c7:04:97:a9:de:39:10:63:99:20:38:e4:13:7d:94:
         2c:07:c5:13:68:a8:60:86:94:40:b0:29:ba:f9:d9:34:a0:d1:
         00:9c:29:63:96:5e:45:d4:10:18:4e:0c:5c:34:36:43:5b:8c:
         10:6e:b6:81:1f:04:f8:81:5e:3e:37:ad:f3:95:dc:32:34:ee:
         11:69:1f:63:2c:c6:08:d8:32:0d:29:f8:0d:ac:8d:6b:d1:aa:
         1c:54:43:13:8d:a4:45:dc:8d:d5:81:c5:bc:fd:64:44:3f:7e:
         6c:40:dd:6f:24:69:61:cb:ad:c2:f9:29:f8:53:01:02:9b:99:
         5b:3e:c0:b5:61:5f:9b:8e:21:d2:1b:c3:14:f6:7d:a9:20:9d:
         ac:f5:3d:2c:de:29:6f:db:af:5a:a6:c2:75:37:f6:aa:a0:f3:
         e5:dc:b9:26:00:47:af:f2:37:ff:04:1f:c8:3c:8d:c0:5a:64:
         6b:60:09:e4:d1:b0:ca:97:e2:ae:64:8c:fa:eb:f8:e0:83:f4:
         05:bc:dc:79:17:91:eb:06:72:26:ac:0b:09:59:9f:75:6d:3b:
         8c:67:52:b9:3c:9d:44:28:46:fc:b6:cd:18:cc:51:33:30:cf:
         5f:65:1c:d8:f7:49:bf:60:77:f7:9e:b7:60:6a:bd:04:a3:e7:
         9c:09:95:b7
-----BEGIN CERTIFICATE-----
MIIDeDCCAmCgAwIBAgIUTkKIzXJfKwCiZ4jz7o3npWt3PMUwDQYJKoZIhvcNAQEL
BQAwDzENMAsGA1UEAwwEUm9vdDAeFw0yMTEwMDUxMjAwMDBaFw0yMjEwMDUxMjAw
MDBaMA8xDTALBgNVBAMMBFJvb3QwggEiMA0GCSqGSIb3DQEBAQUAA4IBDwAwggEK
AoIBAQDKP/gfQo9VmPif+5QDQirBQjorKvNUFPP+ZyUk05p/ZhpgC53YvWVxtfXZ
/uv2BHJXl7wjsL69zpSeWBoQ5zMJC1eoHG/6987RMTSQGrRgLdJ/KZtO7PRumSFr
mJyQCfy9L1XDNDhISnP+WOIJudn5U/aE4l386zy6kvW8l8zvQ1T3T8m0LIaVMqbo
kfWOMfjetdnJPU3XJEyMWKqKxXmr5807XIRnUlqIM8NV1akuyVthfIcFwQvXGUr+
vbqv1+Vw0aSSCNLyyiuxlNCEV/kwkvw6Z4IQbuOJn7PfdW6ZRr3OseisojshgNoR
E73fkw4O7l31OaKo90HIywBcrO6xAgMBAAGjgcswgcgwHQYDVR0OBBYEFL4zckfC
sZdBmcAxV1JWDLVTeFqkMB8GA1UdIwQYMBaAFL4zckfCsZdBmcAxV1JWDLVTeFqk
MDcGCCsGAQUFBwEBBCswKTAnBggrBgEFBQcwAoYbaHR0cDovL3VybC1mb3ItYWlh
L1Jvb3QuY2VyMCwGA1UdHwQlMCMwIaAfoB2GG2h0dHA6Ly91cmwtZm9yLWNybC9S
b290LmNybDAOBgNVHQ8BAf8EBAMCAQYwDwYDVR0TAQH/BAUwAwEB/zANBgkqhkiG
9w0BAQsFAAOCAQEAeXGJxwSXqd45EGOZIDjkE32ULAfFE2ioYIaUQLApuvnZNKDR
AJwpY5ZeRdQQGE4MXDQ2Q1uMEG62gR8E+IFePjet85XcMjTuEWkfYyzGCNgyDSn4
DayNa9GqHFRDE42kRdyN1YHFvP1kRD9+bEDdbyRpYcutwvkp+FMBApuZWz7AtWFf
m44h0hvDFPZ9qSCdrPU9LN4pb9uvWqbCdTf2qqDz5dy5JgBHr/I3/wQfyDyNwFpk
a2AJ5NGwypfirmSM+uv44IP0BbzceReR6wZyJqwLCVmfdW07jGdSuTydRChG/LbN
GMxRMzDPX2Uc2PdJv2B39563YGq9BKPnnAmVtw==
-----END CERTIFICATE-----
