[Created by: generate-chains.py]

Certificate chain where the intermediate sets pathlen=0, however
violates this by issuing another (non-self-issued) intermediate.

Certificate:
    Data:
        Version: 3 (0x2)
        Serial Number:
            6c:9c:41:88:f3:dd:f7:23:b5:c4:3d:82:f4:20:ea:b9:2e:9e:c5:ef
        Signature Algorithm: sha256WithRSAEncryption
        Issuer: CN=Intermediate2
        Validity
            Not Before: Oct  5 12:00:00 2021 GMT
            Not After : Oct  5 12:00:00 2022 GMT
        Subject: CN=Target
        Subject Public Key Info:
            Public Key Algorithm: rsaEncryption
                RSA Public-Key: (2048 bit)
                Modulus:
                    00:c6:80:ed:2c:42:bf:ef:7c:65:e7:f7:d5:37:8f:
                    b8:ed:bf:09:be:83:b5:22:ba:8d:8e:5f:63:cb:98:
                    69:ba:fc:79:a6:2c:02:70:b2:11:49:24:32:59:6a:
                    10:ec:da:8a:fa:51:27:d2:95:a6:08:03:1d:39:20:
                    61:4b:c0:a0:f3:54:1a:53:f4:53:34:42:66:af:d3:
                    08:5c:0e:ab:ca:c5:97:1f:76:60:0d:5c:06:56:96:
                    42:a6:73:fc:63:0b:e9:02:a2:64:7b:18:4e:6d:7e:
                    88:b9:65:bf:52:bb:e5:57:ee:af:81:54:b0:6f:b3:
                    c5:22:da:9c:7d:40:d1:86:01:9d:db:37:be:91:50:
                    94:9b:a8:7e:d9:54:32:81:50:fd:14:54:6a:a3:8b:
                    b5:2c:1e:c0:9a:a8:de:fc:96:f5:1a:ca:97:70:60:
                    79:94:5e:67:e8:90:fe:c3:68:63:f0:5d:64:e5:ec:
                    89:a7:75:61:0c:68:2a:fe:b0:d3:85:17:0b:5e:f9:
                    1b:ff:1b:7e:f4:52:ff:20:56:0f:7b:50:15:db:96:
                    77:3c:09:4e:98:2b:c7:8e:55:bb:59:7c:52:b7:6e:
                    45:20:d7:b6:c7:7e:4f:71:d7:dd:e6:b9:58:04:60:
                    2a:e4:40:64:5e:2c:8e:30:96:bc:84:db:42:b9:66:
                    8b:95
                Exponent: 65537 (0x10001)
        X509v3 extensions:
            X509v3 Subject Key Identifier: 
                34:29:52:19:D8:05:D8:C6:BF:24:AE:2A:40:05:81:8A:A8:86:D0:CC
            X509v3 Authority Key Identifier: 
                keyid:B3:4F:7C:A1:46:15:63:82:54:3A:AF:D2:F7:40:56:21:7B:14:44:51

            Authority Information Access: 
                CA Issuers - URI:http://url-for-aia/Intermediate2.cer

            X509v3 CRL Distribution Points: 

                Full Name:
                  URI:http://url-for-crl/Intermediate2.crl

            X509v3 Key Usage: critical
                Digital Signature, Key Encipherment
            X509v3 Extended Key Usage: 
                TLS Web Server Authentication, TLS Web Client Authentication
    Signature Algorithm: sha256WithRSAEncryption
         11:40:e4:4a:02:0c:9e:51:0f:63:de:a2:8d:7f:d4:b8:a9:30:
         ee:d4:68:94:62:28:53:54:dc:7b:4a:3c:6a:a6:2a:33:c6:bc:
         87:53:e3:ca:ca:88:08:7e:0f:f9:56:10:16:33:44:ea:95:73:
         4f:b1:69:d0:78:c7:e7:2e:ed:fc:73:c2:85:4a:e6:73:ae:84:
         9d:35:c2:1d:f6:42:e6:6d:f9:e3:3e:b0:5d:17:56:13:9e:63:
         d3:a2:4b:6a:ec:35:43:de:b1:99:33:62:73:c2:81:5c:fc:f0:
         35:fc:39:52:1e:48:1c:16:0e:bf:66:22:08:9f:33:5e:b9:0f:
         54:68:6c:58:bc:02:62:46:ca:e5:f7:75:46:b4:88:ca:67:e5:
         76:39:8f:ad:f7:9e:d5:af:a3:ed:5e:59:47:eb:45:df:92:3f:
         37:1e:57:d3:6f:a5:5e:d3:f7:ee:1c:85:56:3f:f7:27:17:2a:
         f3:57:e9:86:69:77:f3:d1:9f:c4:81:ff:48:c8:88:18:f2:ab:
         fe:00:3d:72:97:e7:79:0c:3f:a6:4c:1f:1f:19:43:75:01:a6:
         0b:76:25:e8:00:55:82:48:ef:8a:85:25:f0:f5:cd:3d:93:82:
         69:52:35:19:1c:02:96:d8:77:64:de:e8:a3:25:8f:2c:fc:74:
         81:a4:7e:f8
-----BEGIN CERTIFICATE-----
MIIDozCCAougAwIBAgIUbJxBiPPd9yO1xD2C9CDquS6exe8wDQYJKoZIhvcNAQEL
BQAwGDEWMBQGA1UEAwwNSW50ZXJtZWRpYXRlMjAeFw0yMTEwMDUxMjAwMDBaFw0y
MjEwMDUxMjAwMDBaMBExDzANBgNVBAMMBlRhcmdldDCCASIwDQYJKoZIhvcNAQEB
BQADggEPADCCAQoCggEBAMaA7SxCv+98Zef31TePuO2/Cb6DtSK6jY5fY8uYabr8
eaYsAnCyEUkkMllqEOzaivpRJ9KVpggDHTkgYUvAoPNUGlP0UzRCZq/TCFwOq8rF
lx92YA1cBlaWQqZz/GML6QKiZHsYTm1+iLllv1K75Vfur4FUsG+zxSLanH1A0YYB
nds3vpFQlJuoftlUMoFQ/RRUaqOLtSwewJqo3vyW9RrKl3BgeZReZ+iQ/sNoY/Bd
ZOXsiad1YQxoKv6w04UXC175G/8bfvRS/yBWD3tQFduWdzwJTpgrx45Vu1l8Urdu
RSDXtsd+T3HX3ea5WARgKuRAZF4sjjCWvITbQrlmi5UCAwEAAaOB6zCB6DAdBgNV
HQ4EFgQUNClSGdgF2Ma/JK4qQAWBiqiG0MwwHwYDVR0jBBgwFoAUs098oUYVY4JU
Oq/S90BWIXsURFEwQAYIKwYBBQUHAQEENDAyMDAGCCsGAQUFBzAChiRodHRwOi8v
dXJsLWZvci1haWEvSW50ZXJtZWRpYXRlMi5jZXIwNQYDVR0fBC4wLDAqoCigJoYk
aHR0cDovL3VybC1mb3ItY3JsL0ludGVybWVkaWF0ZTIuY3JsMA4GA1UdDwEB/wQE
AwIFoDAdBgNVHSUEFjAUBggrBgEFBQcDAQYIKwYBBQUHAwIwDQYJKoZIhvcNAQEL
BQADggEBABFA5EoCDJ5RD2Peoo1/1LipMO7UaJRiKFNU3HtKPGqmKjPGvIdT48rK
iAh+D/lWEBYzROqVc0+xadB4x+cu7fxzwoVK5nOuhJ01wh32QuZt+eM+sF0XVhOe
Y9OiS2rsNUPesZkzYnPCgVz88DX8OVIeSBwWDr9mIgifM165D1RobFi8AmJGyuX3
dUa0iMpn5XY5j633ntWvo+1eWUfrRd+SPzceV9NvpV7T9+4chVY/9ycXKvNX6YZp
d/PRn8SB/0jIiBjyq/4APXKX53kMP6ZMHx8ZQ3UBpgt2JegAVYJI74qFJfD1zT2T
gmlSNRkcApbYd2Te6KMljyz8dIGkfvg=
-----END CERTIFICATE-----

Certificate:
    Data:
        Version: 3 (0x2)
        Serial Number:
            17:8c:9b:75:3d:af:a1:29:c3:af:35:d8:95:1a:c4:3f:ab:fb:b8:e8
        Signature Algorithm: sha256WithRSAEncryption
        Issuer: CN=Intermediate1
        Validity
            Not Before: Oct  5 12:00:00 2021 GMT
            Not After : Oct  5 12:00:00 2022 GMT
        Subject: CN=Intermediate2
        Subject Public Key Info:
            Public Key Algorithm: rsaEncryption
                RSA Public-Key: (2048 bit)
                Modulus:
                    00:a5:da:13:9b:86:a9:21:3f:1b:20:2d:25:a0:65:
                    28:27:5c:0c:2c:f5:ff:28:2a:4c:5c:63:4a:08:c6:
                    90:06:55:13:54:d9:6d:c4:83:64:22:c0:1c:40:b1:
                    c9:f5:64:af:1d:cf:55:74:02:e8:97:af:3b:fe:ba:
                    32:f9:3a:10:79:6f:5b:81:b8:cf:d6:25:3b:36:7f:
                    fb:17:a4:75:32:96:d3:b5:c5:97:87:8f:cd:63:e7:
                    0f:28:3c:8e:0a:1e:46:91:a9:64:8b:70:7c:c8:ef:
                    b1:fa:82:50:2f:56:5c:17:b3:18:b9:4b:26:e2:a5:
                    53:a8:27:a0:b7:d0:61:12:93:a7:5f:9a:1d:41:5c:
                    53:c3:29:bd:96:44:8d:a6:1f:f9:e7:74:13:5a:84:
                    e3:3c:a5:41:cd:e9:86:72:c2:12:ea:2a:78:76:f8:
                    88:93:f6:8a:d0:de:3e:b0:33:a0:96:fa:40:cb:c0:
                    e0:49:4d:c1:e8:46:40:b3:7f:a3:e5:01:d3:4e:9b:
                    e0:6c:21:6e:4a:d3:d6:e5:0c:1b:e1:1d:39:54:ca:
                    35:4f:2a:1a:b0:b3:66:40:4e:f7:e9:72:70:f4:70:
                    83:c6:81:12:bd:c9:c3:cc:53:95:fa:e4:21:74:f5:
                    1e:f6:69:1c:42:6b:ba:ec:b5:83:33:41:7b:72:b8:
                    a4:9f
                Exponent: 65537 (0x10001)
        X509v3 extensions:
            X509v3 Subject Key Identifier: 
                B3:4F:7C:A1:46:15:63:82:54:3A:AF:D2:F7:40:56:21:7B:14:44:51
            X509v3 Authority Key Identifier: 
                keyid:78:A0:50:E7:F0:D8:50:C1:A8:AE:40:CC:35:8A:73:B1:2C:78:51:4A

            Authority Information Access: 
                CA Issuers - URI:http://url-for-aia/Intermediate1.cer

            X509v3 CRL Distribution Points: 

                Full Name:
                  URI:http://url-for-crl/Intermediate1.crl

            X509v3 Key Usage: critical
                Certificate Sign, CRL Sign
            X509v3 Basic Constraints: critical
                CA:TRUE, pathlen:0
    Signature Algorithm: sha256WithRSAEncryption
         8a:26:3f:42:59:66:41:5c:e4:e4:df:2c:f8:32:db:5c:52:d1:
         b5:14:af:08:45:41:be:cd:f4:a4:e7:77:43:a7:b9:99:e1:dc:
         de:01:6b:6c:39:d6:ab:51:0c:e9:16:a3:94:e2:59:18:90:06:
         ba:47:aa:37:49:74:8c:6d:d2:13:59:e2:b9:d6:39:a7:00:66:
         95:01:fc:d6:94:e6:9e:08:0b:74:2f:fb:9f:34:b0:db:36:b7:
         5c:0f:90:dc:d6:09:3c:d6:0d:90:cb:8b:d0:0a:d8:ce:56:6e:
         44:36:50:72:48:61:70:d1:72:e5:41:4b:6c:c3:91:ef:ef:d6:
         72:be:5b:3e:fa:00:e5:aa:3f:7a:5b:27:6d:b3:fe:02:cc:c3:
         ee:67:09:3d:90:91:66:62:6c:66:5a:ee:59:38:b5:ff:1b:69:
         7f:97:d5:81:7c:59:04:6b:cb:20:89:4a:ce:7b:a6:d0:0a:df:
         d3:58:34:1b:4a:25:d2:2c:63:49:95:22:f9:16:95:56:ee:6f:
         0f:28:5b:b1:65:69:1f:11:1c:99:01:a4:df:f2:8a:6e:03:c9:
         6e:5c:47:dd:ec:4f:62:26:59:bb:a2:a3:f4:fc:89:c7:ec:67:
         23:1e:a4:52:32:9e:fb:bb:f3:f0:7b:7f:4b:cd:28:4f:34:7d:
         ac:af:65:76
-----BEGIN CERTIFICATE-----
MIIDnzCCAoegAwIBAgIUF4ybdT2voSnDrzXYlRrEP6v7uOgwDQYJKoZIhvcNAQEL
BQAwGDEWMBQGA1UEAwwNSW50ZXJtZWRpYXRlMTAeFw0yMTEwMDUxMjAwMDBaFw0y
MjEwMDUxMjAwMDBaMBgxFjAUBgNVBAMMDUludGVybWVkaWF0ZTIwggEiMA0GCSqG
SIb3DQEBAQUAA4IBDwAwggEKAoIBAQCl2hObhqkhPxsgLSWgZSgnXAws9f8oKkxc
Y0oIxpAGVRNU2W3Eg2QiwBxAscn1ZK8dz1V0AuiXrzv+ujL5OhB5b1uBuM/WJTs2
f/sXpHUyltO1xZeHj81j5w8oPI4KHkaRqWSLcHzI77H6glAvVlwXsxi5SybipVOo
J6C30GESk6dfmh1BXFPDKb2WRI2mH/nndBNahOM8pUHN6YZywhLqKnh2+IiT9orQ
3j6wM6CW+kDLwOBJTcHoRkCzf6PlAdNOm+BsIW5K09blDBvhHTlUyjVPKhqws2ZA
TvfpcnD0cIPGgRK9ycPMU5X65CF09R72aRxCa7rstYMzQXtyuKSfAgMBAAGjgeAw
gd0wHQYDVR0OBBYEFLNPfKFGFWOCVDqv0vdAViF7FERRMB8GA1UdIwQYMBaAFHig
UOfw2FDBqK5AzDWKc7EseFFKMEAGCCsGAQUFBwEBBDQwMjAwBggrBgEFBQcwAoYk
aHR0cDovL3VybC1mb3ItYWlhL0ludGVybWVkaWF0ZTEuY2VyMDUGA1UdHwQuMCww
KqAooCaGJGh0dHA6Ly91cmwtZm9yLWNybC9JbnRlcm1lZGlhdGUxLmNybDAOBgNV
HQ8BAf8EBAMCAQYwEgYDVR0TAQH/BAgwBgEB/wIBADANBgkqhkiG9w0BAQsFAAOC
AQEAiiY/QllmQVzk5N8s+DLbXFLRtRSvCEVBvs30pOd3Q6e5meHc3gFrbDnWq1EM
6RajlOJZGJAGukeqN0l0jG3SE1niudY5pwBmlQH81pTmnggLdC/7nzSw2za3XA+Q
3NYJPNYNkMuL0ArYzlZuRDZQckhhcNFy5UFLbMOR7+/Wcr5bPvoA5ao/elsnbbP+
AszD7mcJPZCRZmJsZlruWTi1/xtpf5fVgXxZBGvLIIlKznum0Arf01g0G0ol0ixj
SZUi+RaVVu5vDyhbsWVpHxEcmQGk3/KKbgPJblxH3exPYiZZu6Kj9PyJx+xnIx6k
UjKe+7vz8Ht/S80oTzR9rK9ldg==
-----END CERTIFICATE-----

Certificate:
    Data:
        Version: 3 (0x2)
        Serial Number:
            51:a0:bf:32:38:48:73:e8:3d:c1:b2:cc:5c:f8:d9:94:14:a9:2a:db
        Signature Algorithm: sha256WithRSAEncryption
        Issuer: CN=Root
        Validity
            Not Before: Oct  5 12:00:00 2021 GMT
            Not After : Oct  5 12:00:00 2022 GMT
        Subject: CN=Intermediate1
        Subject Public Key Info:
            Public Key Algorithm: rsaEncryption
                RSA Public-Key: (2048 bit)
                Modulus:
                    00:a1:53:d3:7c:15:ee:13:ee:f8:8a:57:2c:76:df:
                    71:f0:10:21:58:fd:6c:9e:02:b8:6b:09:77:40:de:
                    d2:cf:62:8b:5b:9f:29:fe:11:a3:6b:c8:fb:f3:7f:
                    aa:22:13:87:7f:c1:3f:41:40:3f:1b:21:51:ae:5a:
                    03:ae:86:c2:68:7c:8d:3d:1b:0e:d9:62:98:5a:66:
                    d9:3b:8f:88:2a:44:b6:df:c9:2b:1c:78:95:d3:e1:
                    50:7b:18:42:3b:f3:1b:41:bb:48:d9:31:54:6a:d9:
                    ef:7e:8a:a6:fe:ce:bb:5e:f8:13:68:f2:61:be:75:
                    a2:65:5f:d0:c5:87:fa:f6:e1:04:05:2b:50:a0:88:
                    ac:e2:d5:af:b6:83:6b:b8:b3:a0:1a:2d:65:71:5f:
                    67:a6:97:3e:43:a2:5e:80:c5:fe:36:40:34:05:ea:
                    79:31:0a:fa:b9:68:9a:58:f3:28:b6:7a:dd:6a:06:
                    4c:da:76:f5:a5:63:70:8a:27:64:29:87:c1:8b:77:
                    fa:f0:cd:ef:56:a9:4c:7f:14:6d:da:c8:b8:b5:80:
                    8d:df:68:60:61:6f:e3:31:f3:d7:47:8e:0e:58:f0:
                    f1:9f:f1:7e:d4:d9:41:b9:6a:f4:33:4d:f5:7f:ef:
                    d4:b4:91:50:4b:4b:65:d9:8d:de:cc:a4:d3:88:17:
                    ca:3f
                Exponent: 65537 (0x10001)
        X509v3 extensions:
            X509v3 Subject Key Identifier: 
                78:A0:50:E7:F0:D8:50:C1:A8:AE:40:CC:35:8A:73:B1:2C:78:51:4A
            X509v3 Authority Key Identifier: 
                keyid:FB:44:5A:0F:03:A9:3A:3C:75:B4:3E:87:2E:99:99:2E:73:04:0E:0F

            Authority Information Access: 
                CA Issuers - URI:http://url-for-aia/Root.cer

            X509v3 CRL Distribution Points: 

                Full Name:
                  URI:http://url-for-crl/Root.crl

            X509v3 Key Usage: critical
                Certificate Sign, CRL Sign
            X509v3 Basic Constraints: critical
                CA:TRUE, pathlen:0
    Signature Algorithm: sha256WithRSAEncryption
         76:17:bf:d0:09:fc:6b:7b:58:0d:62:ef:d4:5f:3f:56:69:d2:
         d9:9e:b0:fb:e6:79:da:80:99:b0:42:6c:5f:f0:2b:7e:d1:7e:
         06:dd:26:14:7e:34:31:86:18:5e:cc:b4:0b:25:43:0e:78:f2:
         db:dc:e0:05:8e:b7:d5:4a:fd:7e:b0:76:6f:65:c5:78:d8:4b:
         2a:03:4b:50:25:68:30:e2:a2:58:49:e2:98:2a:ea:c9:c2:25:
         4f:7b:a5:e8:0a:50:f7:34:b4:b8:f5:e1:79:8e:f3:e4:bc:67:
         89:aa:bd:e5:2b:ee:c2:8d:6b:23:ca:89:97:7f:c9:a9:9b:64:
         24:04:99:3c:a8:40:02:f9:a2:00:f6:fe:15:6c:1a:ad:cd:e8:
         39:d4:18:12:f6:2f:dc:ff:fd:e4:55:77:9f:80:7c:1f:b9:9a:
         d2:ab:19:f2:fb:44:6e:14:6c:08:56:3a:61:c9:c6:30:0a:19:
         67:05:f4:c7:11:a7:c9:da:63:0e:d1:b1:a6:53:1f:1d:c4:f3:
         2b:86:f8:eb:47:af:27:f4:70:44:19:21:08:c0:a8:3b:70:e8:
         34:58:e4:63:ec:a5:12:0f:ed:b0:4a:2f:33:6d:77:86:66:ab:
         12:17:ce:59:0a:cd:68:67:66:c9:80:57:75:e8:07:4a:69:e8:
         61:a5:69:90
-----BEGIN CERTIFICATE-----
MIIDhDCCAmygAwIBAgIUUaC/MjhIc+g9wbLMXPjZlBSpKtswDQYJKoZIhvcNAQEL
BQAwDzENMAsGA1UEAwwEUm9vdDAeFw0yMTEwMDUxMjAwMDBaFw0yMjEwMDUxMjAw
MDBaMBgxFjAUBgNVBAMMDUludGVybWVkaWF0ZTEwggEiMA0GCSqGSIb3DQEBAQUA
A4IBDwAwggEKAoIBAQChU9N8Fe4T7viKVyx233HwECFY/WyeArhrCXdA3tLPYotb
nyn+EaNryPvzf6oiE4d/wT9BQD8bIVGuWgOuhsJofI09Gw7ZYphaZtk7j4gqRLbf
ySsceJXT4VB7GEI78xtBu0jZMVRq2e9+iqb+zrte+BNo8mG+daJlX9DFh/r24QQF
K1CgiKzi1a+2g2u4s6AaLWVxX2emlz5Dol6Axf42QDQF6nkxCvq5aJpY8yi2et1q
BkzadvWlY3CKJ2Qph8GLd/rwze9WqUx/FG3ayLi1gI3faGBhb+Mx89dHjg5Y8PGf
8X7U2UG5avQzTfV/79S0kVBLS2XZjd7MpNOIF8o/AgMBAAGjgc4wgcswHQYDVR0O
BBYEFHigUOfw2FDBqK5AzDWKc7EseFFKMB8GA1UdIwQYMBaAFPtEWg8DqTo8dbQ+
hy6ZmS5zBA4PMDcGCCsGAQUFBwEBBCswKTAnBggrBgEFBQcwAoYbaHR0cDovL3Vy
bC1mb3ItYWlhL1Jvb3QuY2VyMCwGA1UdHwQlMCMwIaAfoB2GG2h0dHA6Ly91cmwt
Zm9yLWNybC9Sb290LmNybDAOBgNVHQ8BAf8EBAMCAQYwEgYDVR0TAQH/BAgwBgEB
/wIBADANBgkqhkiG9w0BAQsFAAOCAQEAdhe/0An8a3tYDWLv1F8/VmnS2Z6w++Z5
2oCZsEJsX/ArftF+Bt0mFH40MYYYXsy0CyVDDnjy29zgBY631Ur9frB2b2XFeNhL
KgNLUCVoMOKiWEnimCrqycIlT3ul6ApQ9zS0uPXheY7z5Lxniaq95Svuwo1rI8qJ
l3/JqZtkJASZPKhAAvmiAPb+FWwarc3oOdQYEvYv3P/95FV3n4B8H7ma0qsZ8vtE
bhRsCFY6YcnGMAoZZwX0xxGnydpjDtGxplMfHcTzK4b460evJ/RwRBkhCMCoO3Do
NFjkY+ylEg/tsEovM213hmarEhfOWQrNaGdmyYBXdegHSmnoYaVpkA==
-----END CERTIFICATE-----

Certificate:
    Data:
        Version: 3 (0x2)
        Serial Number:
            51:a0:bf:32:38:48:73:e8:3d:c1:b2:cc:5c:f8:d9:94:14:a9:2a:da
        Signature Algorithm: sha256WithRSAEncryption
        Issuer: CN=Root
        Validity
            Not Before: Oct  5 12:00:00 2021 GMT
            Not After : Oct  5 12:00:00 2022 GMT
        Subject: CN=Root
        Subject Public Key Info:
            Public Key Algorithm: rsaEncryption
                RSA Public-Key: (2048 bit)
                Modulus:
                    00:92:08:56:82:b9:30:af:14:a4:b9:10:66:49:4d:
                    2a:e7:3c:3b:38:4e:a9:b3:1e:76:0f:32:75:73:d0:
                    d9:c6:21:3a:86:77:01:b7:a9:ec:52:96:d6:01:97:
                    a4:90:f3:63:24:da:ed:9e:57:98:05:ee:e9:22:69:
                    00:02:c6:cf:16:fb:54:7b:00:33:31:2b:0a:cc:c3:
                    54:98:7a:a0:11:c8:45:78:b5:e7:3a:17:7e:4f:5b:
                    a6:e8:97:9f:73:6a:fc:49:38:d7:4b:3c:51:05:e9:
                    aa:a1:0b:a9:f5:86:52:b7:d3:3d:31:ec:ca:82:64:
                    15:f9:8a:e8:8e:c8:f6:88:35:ae:7c:b1:ba:4a:86:
                    07:f0:85:0e:99:6a:30:a9:a4:a8:0c:d5:21:57:e0:
                    cd:95:96:47:22:bf:93:bc:62:78:c2:59:ab:ae:69:
                    12:75:69:11:c0:60:8d:9d:d7:54:6e:e4:4a:44:0d:
                    75:4c:4b:e4:0e:96:69:0c:5a:be:97:fd:5f:29:8a:
                    a8:46:60:10:b8:a3:c5:ae:47:2d:9a:3f:79:1e:90:
                    44:f7:9d:c9:1b:3e:ad:35:45:83:5f:5d:89:c6:24:
                    a7:b5:bf:09:47:22:f8:30:b8:94:34:85:4f:21:89:
                    52:63:fa:db:01:e5:0f:e0:f3:36:97:5d:2e:6c:6c:
                    3d:57
                Exponent: 65537 (0x10001)
        X509v3 extensions:
            X509v3 Subject Key Identifier: 
                FB:44:5A:0F:03:A9:3A:3C:75:B4:3E:87:2E:99:99:2E:73:04:0E:0F
            X509v3 Authority Key Identifier: 
                keyid:FB:44:5A:0F:03:A9:3A:3C:75:B4:3E:87:2E:99:99:2E:73:04:0E:0F

            Authority Information Access: 
                CA Issuers - URI:http://url-for-aia/Root.cer

            X509v3 CRL Distribution Points: 

                Full Name:
                  URI:http://url-for-crl/Root.crl

            X509v3 Key Usage: critical
                Certificate Sign, CRL Sign
            X509v3 Basic Constraints: critical
                CA:TRUE
    Signature Algorithm: sha256WithRSAEncryption
         23:f1:e7:b1:85:a0:fe:b3:e5:1a:e9:91:d2:ca:de:17:c3:f5:
         60:bc:98:f5:59:7f:37:3a:f6:4f:7f:f2:f5:f2:d8:aa:2f:fa:
         f2:a5:cd:96:a5:4b:37:3a:82:b5:19:49:c3:c8:d6:20:71:aa:
         8b:3e:fe:bb:f7:dc:1b:ef:d5:62:75:d5:fe:1a:65:11:23:3e:
         b5:9c:66:e4:dd:85:0d:cf:e3:28:91:69:8d:07:c0:84:fc:5f:
         f9:1f:12:be:ab:90:53:7c:16:05:0a:85:b3:3f:72:e9:d2:49:
         ba:f8:1c:c6:48:38:e2:ad:81:ea:60:60:c7:e3:ab:db:ef:47:
         c6:a4:04:5f:ab:7d:a0:e8:08:fe:b9:03:32:dc:b3:cf:4f:7b:
         41:27:98:06:f3:a9:d4:20:d8:c9:ae:6a:c9:b0:76:7e:36:27:
         a7:39:4f:c8:c1:a8:9a:76:6c:4f:a3:ef:61:07:1d:23:ea:2f:
         fc:d0:2c:43:de:e7:93:0c:21:46:d8:3f:da:d9:59:da:0a:08:
         ea:ee:43:2a:81:57:7b:96:35:dc:6d:c6:76:47:43:3e:78:cd:
         9b:00:f2:17:da:ba:c6:da:d6:8f:d3:31:bf:c9:a0:c5:ec:f7:
         67:3c:cf:0c:26:63:c7:3b:3c:82:e2:b1:01:c8:19:8a:2f:e7:
         00:b4:50:fb
-----BEGIN CERTIFICATE-----
MIIDeDCCAmCgAwIBAgIUUaC/MjhIc+g9wbLMXPjZlBSpKtowDQYJKoZIhvcNAQEL
BQAwDzENMAsGA1UEAwwEUm9vdDAeFw0yMTEwMDUxMjAwMDBaFw0yMjEwMDUxMjAw
MDBaMA8xDTALBgNVBAMMBFJvb3QwggEiMA0GCSqGSIb3DQEBAQUAA4IBDwAwggEK
AoIBAQCSCFaCuTCvFKS5EGZJTSrnPDs4TqmzHnYPMnVz0NnGITqGdwG3qexSltYB
l6SQ82Mk2u2eV5gF7ukiaQACxs8W+1R7ADMxKwrMw1SYeqARyEV4tec6F35PW6bo
l59zavxJONdLPFEF6aqhC6n1hlK30z0x7MqCZBX5iuiOyPaINa58sbpKhgfwhQ6Z
ajCppKgM1SFX4M2Vlkciv5O8YnjCWauuaRJ1aRHAYI2d11Ru5EpEDXVMS+QOlmkM
Wr6X/V8piqhGYBC4o8WuRy2aP3kekET3nckbPq01RYNfXYnGJKe1vwlHIvgwuJQ0
hU8hiVJj+tsB5Q/g8zaXXS5sbD1XAgMBAAGjgcswgcgwHQYDVR0OBBYEFPtEWg8D
qTo8dbQ+hy6ZmS5zBA4PMB8GA1UdIwQYMBaAFPtEWg8DqTo8dbQ+hy6ZmS5zBA4P
MDcGCCsGAQUFBwEBBCswKTAnBggrBgEFBQcwAoYbaHR0cDovL3VybC1mb3ItYWlh
L1Jvb3QuY2VyMCwGA1UdHwQlMCMwIaAfoB2GG2h0dHA6Ly91cmwtZm9yLWNybC9S
b290LmNybDAOBgNVHQ8BAf8EBAMCAQYwDwYDVR0TAQH/BAUwAwEB/zANBgkqhkiG
9w0BAQsFAAOCAQEAI/HnsYWg/rPlGumR0sreF8P1YLyY9Vl/Nzr2T3/y9fLYqi/6
8qXNlqVLNzqCtRlJw8jWIHGqiz7+u/fcG+/VYnXV/hplESM+tZxm5N2FDc/jKJFp
jQfAhPxf+R8SvquQU3wWBQqFsz9y6dJJuvgcxkg44q2B6mBgx+Or2+9HxqQEX6t9
oOgI/rkDMtyzz097QSeYBvOp1CDYya5qybB2fjYnpzlPyMGomnZsT6PvYQcdI+ov
/NAsQ97nkwwhRtg/2tlZ2goI6u5DKoFXe5Y13G3GdkdDPnjNmwDyF9q6xtrWj9Mx
v8mgxez3ZzzPDCZjxzs8guKxAcgZii/nALRQ+w==
-----END CERTIFICATE-----
