Certificate:
    Data:
        Version: 3 (0x2)
        Serial Number: 4096 (0x1000)
    Signature Algorithm: sha256WithRSAEncryption
        Issuer: CN=D Root CA - Multi-root
        Validity
            Not Before: Jan  2 00:00:00 2016 GMT
            Not After : Jan  2 00:00:00 2026 GMT
        Subject: CN=D Root CA - Multi-root
        Subject Public Key Info:
            Public Key Algorithm: rsaEncryption
                Public-Key: (2048 bit)
                Modulus:
                    00:b4:b2:8e:83:7f:3b:8b:0f:9f:71:37:18:78:d0:
                    f5:bc:07:ac:d8:eb:bf:f6:7c:c0:65:dc:00:bf:83:
                    f7:e4:5e:97:9f:db:24:e4:c1:f9:31:70:b2:51:44:
                    2c:27:05:6a:1f:1e:35:9c:ea:c4:eb:f8:0a:c4:4b:
                    14:30:89:e8:75:93:fb:96:32:bc:0e:64:ca:11:74:
                    4a:ac:26:a0:9c:09:cd:6e:43:cf:6c:56:03:44:ab:
                    53:81:66:8d:5a:ad:75:1b:31:23:9f:fd:5e:8c:10:
                    cd:e9:e9:05:80:41:5e:b8:f1:96:3d:5b:17:b2:e1:
                    a8:47:44:eb:82:30:5e:7a:fe:8f:11:bb:b8:31:8e:
                    98:4c:a9:f3:2c:91:59:78:f4:63:1c:47:ad:6a:96:
                    5e:87:39:f3:17:9b:d6:9c:e9:e1:3c:0e:ef:8a:d8:
                    7e:c3:2d:33:d9:eb:26:29:1d:8a:66:ef:b9:8d:c3:
                    b1:51:3a:75:56:1b:b8:a9:08:e7:10:db:37:70:c4:
                    6c:32:c0:e1:2b:f4:84:12:a5:cf:49:83:e1:5a:40:
                    ab:db:f9:23:c5:7d:c0:03:ac:0e:3e:be:7c:42:92:
                    fb:b7:71:91:37:04:92:4e:d5:92:31:cf:1b:cd:e4:
                    27:e5:85:98:ac:20:95:5d:6d:4e:90:fa:c7:6c:2b:
                    fd:41
                Exponent: 65537 (0x10001)
        X509v3 extensions:
            X509v3 Basic Constraints: critical
                CA:TRUE
            X509v3 Subject Key Identifier: 
                69:E7:FF:33:A6:6B:A0:AD:5A:F1:D3:15:4F:9E:F7:C5:16:2E:C4:B6
            X509v3 Key Usage: critical
                Certificate Sign, CRL Sign
    Signature Algorithm: sha256WithRSAEncryption
         55:ec:3a:cd:87:dc:96:54:23:68:65:f7:a6:91:3c:37:f0:44:
         94:2e:2f:3a:af:2c:0d:f4:09:f6:52:69:4f:ad:ac:83:6c:76:
         76:72:2b:c0:48:ea:c9:76:c0:f5:7a:1e:73:ba:3c:f3:41:93:
         b4:4b:a5:6a:a3:87:f5:c7:6f:e9:55:ce:e0:8b:8c:83:e6:f0:
         e0:1c:e8:6a:8f:3b:67:b6:cd:35:6d:0b:1c:16:bf:38:fd:9d:
         d8:95:a9:3c:b9:4c:05:19:71:f4:a0:2c:1f:83:18:5a:f3:5a:
         ea:80:49:70:cc:49:84:63:7c:a9:4d:cb:1f:df:96:f2:c4:2c:
         2c:e8:b0:75:69:8c:a9:71:7e:27:6a:fe:22:c6:77:e0:77:f4:
         98:05:29:45:18:75:a3:f0:43:40:b2:8d:52:cb:2e:46:fb:37:
         bb:c6:68:20:c2:2e:01:82:51:f0:00:3a:89:40:9b:ab:9c:c3:
         5c:f2:a3:3b:f7:00:98:4d:bd:a7:74:37:f6:74:c7:6e:42:4b:
         aa:8c:cc:c7:85:b2:4b:78:cb:8c:03:7c:e5:85:75:32:a9:89:
         49:da:ed:3d:9e:5b:a2:c9:b2:2a:08:06:6d:cf:df:83:d4:a9:
         3d:e9:44:de:70:9c:43:e3:35:24:dd:85:ed:7c:37:4e:02:44:
         d2:5d:7a:ad
-----BEGIN CERTIFICATE-----
MIIDADCCAeigAwIBAgICEAAwDQYJKoZIhvcNAQELBQAwITEfMB0GA1UEAwwWRCBS
b290IENBIC0gTXVsdGktcm9vdDAeFw0xNjAxMDIwMDAwMDBaFw0yNjAxMDIwMDAw
MDBaMCExHzAdBgNVBAMMFkQgUm9vdCBDQSAtIE11bHRpLXJvb3QwggEiMA0GCSqG
SIb3DQEBAQUAA4IBDwAwggEKAoIBAQC0so6DfzuLD59xNxh40PW8B6zY67/2fMBl
3AC/g/fkXpef2yTkwfkxcLJRRCwnBWofHjWc6sTr+ArESxQwieh1k/uWMrwOZMoR
dEqsJqCcCc1uQ89sVgNEq1OBZo1arXUbMSOf/V6MEM3p6QWAQV648ZY9Wxey4ahH
ROuCMF56/o8Ru7gxjphMqfMskVl49GMcR61qll6HOfMXm9ac6eE8Du+K2H7DLTPZ
6yYpHYpm77mNw7FROnVWG7ipCOcQ2zdwxGwywOEr9IQSpc9Jg+FaQKvb+SPFfcAD
rA4+vnxCkvu3cZE3BJJO1ZIxzxvN5CflhZisIJVdbU6Q+sdsK/1BAgMBAAGjQjBA
MA8GA1UdEwEB/wQFMAMBAf8wHQYDVR0OBBYEFGnn/zOma6CtWvHTFU+e98UWLsS2
MA4GA1UdDwEB/wQEAwIBBjANBgkqhkiG9w0BAQsFAAOCAQEAVew6zYfcllQjaGX3
ppE8N/BElC4vOq8sDfQJ9lJpT62sg2x2dnIrwEjqyXbA9Xoec7o880GTtEulaqOH
9cdv6VXO4IuMg+bw4Bzoao87Z7bNNW0LHBa/OP2d2JWpPLlMBRlx9KAsH4MYWvNa
6oBJcMxJhGN8qU3LH9+W8sQsLOiwdWmMqXF+J2r+IsZ34Hf0mAUpRRh1o/BDQLKN
UssuRvs3u8ZoIMIuAYJR8AA6iUCbq5zDXPKjO/cAmE29p3Q39nTHbkJLqozMx4Wy
S3jLjAN85YV1MqmJSdrtPZ5bosmyKggGbc/fg9SpPelE3nCcQ+M1JN2F7Xw3TgJE
0l16rQ==
-----END CERTIFICATE-----
