Certificate:
    Data:
        Version: 3 (0x2)
        Serial Number: 4096 (0x1000)
    Signature Algorithm: sha256WithRSAEncryption
        Issuer: CN=F CA - Multi-root
        Validity
            Not Before: Jan  5 00:00:00 2016 GMT
            Not After : Jan  2 00:00:00 2026 GMT
        Subject: CN=B CA - Multi-root
        Subject Public Key Info:
            Public Key Algorithm: rsaEncryption
                Public-Key: (2048 bit)
                Modulus:
                    00:ca:6c:54:ab:3c:54:33:6c:d7:04:c4:4b:c4:39:
                    32:db:7a:49:e4:e1:e7:60:c7:35:33:08:59:ba:62:
                    bf:49:d6:05:1f:07:b8:b6:bd:38:2f:6b:a7:e5:8d:
                    de:79:27:d8:36:58:92:69:cc:db:8e:6a:89:b4:79:
                    ab:cf:98:53:08:12:17:9e:51:15:bc:e7:8f:e5:93:
                    d9:1a:2e:68:a9:93:3c:d3:7a:75:a4:5c:c2:fc:16:
                    9b:ba:df:49:5d:73:65:ec:b0:cc:1e:ba:cc:98:39:
                    d1:4e:b2:d6:5f:e8:7f:24:1a:fa:56:b0:0d:33:46:
                    22:56:4f:5c:f3:16:ad:55:8a:62:3c:bc:50:c2:3a:
                    58:3e:70:4d:5a:df:99:ec:c7:a6:2c:8f:2a:a5:2e:
                    11:b8:58:c5:d5:e8:43:2f:40:a5:20:80:32:2a:76:
                    5e:06:07:48:6d:44:60:ba:21:72:61:e2:1a:ec:64:
                    5d:72:72:f1:21:9d:04:2f:61:35:0b:2f:f0:c0:fe:
                    52:b8:c4:41:9c:b6:13:58:21:81:e3:28:27:4d:6c:
                    24:a3:20:fb:0f:9c:d4:4f:34:3a:d0:d1:08:84:c4:
                    40:71:44:4f:e8:be:c5:1f:5d:1c:34:64:0b:6c:1c:
                    24:fa:a9:83:49:c6:f5:4d:7f:63:c0:1a:a9:77:8a:
                    c0:43
                Exponent: 65537 (0x10001)
        X509v3 extensions:
            X509v3 Basic Constraints: critical
                CA:TRUE
            X509v3 Subject Key Identifier: 
                D0:8D:1F:B2:BC:29:96:73:EF:0C:7A:C2:A4:06:96:CF:D5:8C:31:DB
            X509v3 Key Usage: critical
                Certificate Sign, CRL Sign
    Signature Algorithm: sha256WithRSAEncryption
         b3:af:8e:08:79:4f:56:93:22:e0:3b:9e:1f:22:0d:5d:12:69:
         3c:13:26:4c:bb:41:9f:89:4b:b6:28:0d:85:37:75:c7:dc:e5:
         b4:56:ba:3a:34:a7:40:30:ea:dc:7f:36:25:69:b9:c6:be:dd:
         04:89:6a:f0:5e:14:42:45:bb:fc:fc:be:e6:c3:a2:0d:80:26:
         30:11:df:21:54:cd:ea:59:25:5e:20:e8:2d:9d:97:64:fc:46:
         1e:cb:f8:47:9c:90:d9:8e:db:f6:92:ec:76:ff:33:a4:28:16:
         69:60:94:96:5b:e0:a0:32:ef:6f:8d:2a:06:65:67:6e:06:6a:
         35:9f:10:04:37:2d:67:ad:9e:c3:2b:2a:fd:cb:1e:0f:d6:6b:
         25:9d:11:eb:ae:a7:36:8b:b7:1c:11:7d:41:44:8e:37:07:03:
         54:8d:43:ef:19:af:48:75:9d:78:2c:24:32:ba:72:c6:29:fa:
         45:f9:9a:3b:59:9a:c9:2e:01:b5:9f:13:70:c9:dd:59:cf:8f:
         7b:a9:24:c9:dc:c9:b6:52:62:7a:66:7b:2a:60:ee:a4:36:e9:
         3b:95:04:31:fe:6a:74:e4:e2:3a:98:bc:70:26:1e:6e:03:9d:
         f6:5c:3b:1b:5e:77:7a:01:71:56:1c:f9:98:e6:3e:ec:aa:c1:
         e3:bd:35:36
-----BEGIN CERTIFICATE-----
MIIC9jCCAd6gAwIBAgICEAAwDQYJKoZIhvcNAQELBQAwHDEaMBgGA1UEAwwRRiBD
QSAtIE11bHRpLXJvb3QwHhcNMTYwMTA1MDAwMDAwWhcNMjYwMTAyMDAwMDAwWjAc
MRowGAYDVQQDDBFCIENBIC0gTXVsdGktcm9vdDCCASIwDQYJKoZIhvcNAQEBBQAD
ggEPADCCAQoCggEBAMpsVKs8VDNs1wTES8Q5Mtt6SeTh52DHNTMIWbpiv0nWBR8H
uLa9OC9rp+WN3nkn2DZYkmnM245qibR5q8+YUwgSF55RFbznj+WT2RouaKmTPNN6
daRcwvwWm7rfSV1zZeywzB66zJg50U6y1l/ofyQa+lawDTNGIlZPXPMWrVWKYjy8
UMI6WD5wTVrfmezHpiyPKqUuEbhYxdXoQy9ApSCAMip2XgYHSG1EYLohcmHiGuxk
XXJy8SGdBC9hNQsv8MD+UrjEQZy2E1ghgeMoJ01sJKMg+w+c1E80OtDRCITEQHFE
T+i+xR9dHDRkC2wcJPqpg0nG9U1/Y8AaqXeKwEMCAwEAAaNCMEAwDwYDVR0TAQH/
BAUwAwEB/zAdBgNVHQ4EFgQU0I0fsrwplnPvDHrCpAaWz9WMMdswDgYDVR0PAQH/
BAQDAgEGMA0GCSqGSIb3DQEBCwUAA4IBAQCzr44IeU9WkyLgO54fIg1dEmk8EyZM
u0GfiUu2KA2FN3XH3OW0Vro6NKdAMOrcfzYlabnGvt0EiWrwXhRCRbv8/L7mw6IN
gCYwEd8hVM3qWSVeIOgtnZdk/EYey/hHnJDZjtv2kux2/zOkKBZpYJSWW+CgMu9v
jSoGZWduBmo1nxAENy1nrZ7DKyr9yx4P1mslnRHrrqc2i7ccEX1BRI43BwNUjUPv
Ga9IdZ14LCQyunLGKfpF+Zo7WZrJLgG1nxNwyd1Zz497qSTJ3Mm2UmJ6ZnsqYO6k
Nuk7lQQx/mp05OI6mLxwJh5uA532XDsbXnd6AXFWHPmY5j7sqsHjvTU2
-----END CERTIFICATE-----
