Certificate:
    Data:
        Version: 3 (0x2)
        Serial Number: 4097 (0x1001)
    Signature Algorithm: sha256WithRSAEncryption
        Issuer: CN=E Root CA - Multi-root
        Validity
            Not Before: Jan  5 00:00:00 2016 GMT
            Not After : Jan  2 00:00:00 2026 GMT
        Subject: CN=C CA - Multi-root
        Subject Public Key Info:
            Public Key Algorithm: rsaEncryption
                Public-Key: (2048 bit)
                Modulus:
                    00:b2:c4:16:dc:07:88:ec:7e:a6:b3:25:c8:7b:9c:
                    e0:07:1e:40:a9:40:c0:4d:c8:73:27:ea:88:d8:58:
                    1a:1a:12:e3:9a:62:41:4c:a1:e9:b1:ce:c6:b2:f6:
                    3a:f6:89:3f:40:e6:0f:fb:15:4b:cb:d2:8d:8e:b6:
                    44:aa:63:fa:3b:c5:cc:af:86:05:70:aa:ec:f4:b3:
                    79:04:e6:3e:25:ec:ec:29:d6:c9:8b:7b:13:05:a7:
                    ff:51:5b:ab:4c:bc:d0:e4:bd:61:1a:d2:27:f1:2e:
                    5f:f4:51:81:c4:23:ba:20:c3:14:08:b4:be:78:49:
                    b5:13:1f:69:fd:f6:a7:59:91:84:a9:99:10:c8:9c:
                    63:9e:99:c2:f2:3d:61:9d:6a:6e:d4:26:9b:88:aa:
                    da:66:b3:0d:c6:99:03:16:13:3a:a4:9a:ff:08:3e:
                    59:df:a7:44:b7:17:99:3f:63:7f:3a:05:7e:ce:64:
                    78:34:e6:00:77:69:e6:03:24:a7:12:f3:e8:a8:50:
                    2b:55:16:fa:6e:65:c6:28:58:82:a4:20:7e:68:22:
                    e9:81:9e:a2:e8:0f:d6:87:c2:73:dd:c2:0c:cc:a3:
                    47:54:11:f5:3d:dc:51:52:57:b2:ce:77:8b:7a:ac:
                    a7:f0:2a:26:36:e6:26:b9:6a:83:da:b2:6f:c0:f6:
                    1e:f3
                Exponent: 65537 (0x10001)
        X509v3 extensions:
            X509v3 Basic Constraints: critical
                CA:TRUE
            X509v3 Subject Key Identifier: 
                E3:D1:05:98:4C:68:53:C2:DC:00:EE:AC:E5:A8:B8:FC:B9:72:D9:67
            X509v3 Key Usage: critical
                Certificate Sign, CRL Sign
    Signature Algorithm: sha256WithRSAEncryption
         0d:37:a8:9e:12:c9:fb:45:a2:b9:82:07:4a:2a:34:d2:3b:1d:
         84:70:b1:4a:85:37:7e:64:31:45:c3:02:9d:32:4e:92:a4:97:
         72:ed:1d:f2:c3:26:c8:3f:90:e4:24:f4:6e:4b:33:71:98:bc:
         68:25:26:cc:de:c1:46:a6:a8:83:60:fc:6e:c0:72:98:8f:ce:
         38:6e:69:9d:ab:d1:5a:f0:a6:c8:07:a1:09:b3:8c:03:09:7b:
         44:62:73:15:85:71:5f:2c:0a:33:78:f2:a3:10:85:1e:6b:46:
         d1:a5:f1:9c:13:ba:f7:95:41:a0:fb:de:c9:09:e1:72:a4:92:
         ff:33:e4:81:25:10:af:90:17:79:df:54:ea:b9:87:0e:f8:6d:
         09:55:10:46:4c:87:36:37:2f:c0:86:03:ee:7a:b4:d3:27:22:
         22:d5:9c:2e:e6:38:f0:f4:84:5c:ca:b7:9b:4d:6a:1c:57:7e:
         24:07:35:13:a0:f9:d6:a3:aa:29:cb:e0:8a:b0:86:1c:41:24:
         b1:ed:04:30:71:2b:99:d7:0a:a4:51:53:b1:76:2e:be:63:5b:
         7c:8e:d5:8f:fa:f3:99:58:7d:ce:30:07:5d:1e:ed:e6:bc:0a:
         d1:a7:cc:17:94:e7:d1:67:07:7c:37:6d:3f:c2:8b:04:9e:77:
         fb:5b:9c:2d
-----BEGIN CERTIFICATE-----
MIIC+zCCAeOgAwIBAgICEAEwDQYJKoZIhvcNAQELBQAwITEfMB0GA1UEAwwWRSBS
b290IENBIC0gTXVsdGktcm9vdDAeFw0xNjAxMDUwMDAwMDBaFw0yNjAxMDIwMDAw
MDBaMBwxGjAYBgNVBAMMEUMgQ0EgLSBNdWx0aS1yb290MIIBIjANBgkqhkiG9w0B
AQEFAAOCAQ8AMIIBCgKCAQEAssQW3AeI7H6msyXIe5zgBx5AqUDATchzJ+qI2Fga
GhLjmmJBTKHpsc7GsvY69ok/QOYP+xVLy9KNjrZEqmP6O8XMr4YFcKrs9LN5BOY+
JezsKdbJi3sTBaf/UVurTLzQ5L1hGtIn8S5f9FGBxCO6IMMUCLS+eEm1Ex9p/fan
WZGEqZkQyJxjnpnC8j1hnWpu1CabiKraZrMNxpkDFhM6pJr/CD5Z36dEtxeZP2N/
OgV+zmR4NOYAd2nmAySnEvPoqFArVRb6bmXGKFiCpCB+aCLpgZ6i6A/Wh8Jz3cIM
zKNHVBH1PdxRUleyzneLeqyn8ComNuYmuWqD2rJvwPYe8wIDAQABo0IwQDAPBgNV
HRMBAf8EBTADAQH/MB0GA1UdDgQWBBTj0QWYTGhTwtwA7qzlqLj8uXLZZzAOBgNV
HQ8BAf8EBAMCAQYwDQYJKoZIhvcNAQELBQADggEBAA03qJ4SyftFormCB0oqNNI7
HYRwsUqFN35kMUXDAp0yTpKkl3LtHfLDJsg/kOQk9G5LM3GYvGglJszewUamqINg
/G7AcpiPzjhuaZ2r0VrwpsgHoQmzjAMJe0RicxWFcV8sCjN48qMQhR5rRtGl8ZwT
uveVQaD73skJ4XKkkv8z5IElEK+QF3nfVOq5hw74bQlVEEZMhzY3L8CGA+56tNMn
IiLVnC7mOPD0hFzKt5tNahxXfiQHNROg+dajqinL4IqwhhxBJLHtBDBxK5nXCqRR
U7F2Lr5jW3yO1Y/685lYfc4wB10e7ea8CtGnzBeU59FnB3w3bT/CiwSed/tbnC0=
-----END CERTIFICATE-----
