Certificate:
    Data:
        Version: 3 (0x2)
        Serial Number: 4096 (0x1000)
    Signature Algorithm: sha256WithRSAEncryption
        Issuer: CN=C CA - Multi-root
        Validity
            Not Before: Jan  4 00:00:00 2016 GMT
            Not After : Jan  2 00:00:00 2026 GMT
        Subject: CN=B CA - Multi-root
        Subject Public Key Info:
            Public Key Algorithm: rsaEncryption
                Public-Key: (2048 bit)
                Modulus:
                    00:ca:6c:54:ab:3c:54:33:6c:d7:04:c4:4b:c4:39:
                    32:db:7a:49:e4:e1:e7:60:c7:35:33:08:59:ba:62:
                    bf:49:d6:05:1f:07:b8:b6:bd:38:2f:6b:a7:e5:8d:
                    de:79:27:d8:36:58:92:69:cc:db:8e:6a:89:b4:79:
                    ab:cf:98:53:08:12:17:9e:51:15:bc:e7:8f:e5:93:
                    d9:1a:2e:68:a9:93:3c:d3:7a:75:a4:5c:c2:fc:16:
                    9b:ba:df:49:5d:73:65:ec:b0:cc:1e:ba:cc:98:39:
                    d1:4e:b2:d6:5f:e8:7f:24:1a:fa:56:b0:0d:33:46:
                    22:56:4f:5c:f3:16:ad:55:8a:62:3c:bc:50:c2:3a:
                    58:3e:70:4d:5a:df:99:ec:c7:a6:2c:8f:2a:a5:2e:
                    11:b8:58:c5:d5:e8:43:2f:40:a5:20:80:32:2a:76:
                    5e:06:07:48:6d:44:60:ba:21:72:61:e2:1a:ec:64:
                    5d:72:72:f1:21:9d:04:2f:61:35:0b:2f:f0:c0:fe:
                    52:b8:c4:41:9c:b6:13:58:21:81:e3:28:27:4d:6c:
                    24:a3:20:fb:0f:9c:d4:4f:34:3a:d0:d1:08:84:c4:
                    40:71:44:4f:e8:be:c5:1f:5d:1c:34:64:0b:6c:1c:
                    24:fa:a9:83:49:c6:f5:4d:7f:63:c0:1a:a9:77:8a:
                    c0:43
                Exponent: 65537 (0x10001)
        X509v3 extensions:
            X509v3 Basic Constraints: critical
                CA:TRUE
            X509v3 Subject Key Identifier: 
                D0:8D:1F:B2:BC:29:96:73:EF:0C:7A:C2:A4:06:96:CF:D5:8C:31:DB
            X509v3 Key Usage: critical
                Certificate Sign, CRL Sign
    Signature Algorithm: sha256WithRSAEncryption
         1e:16:7c:d7:d1:ee:63:a9:a2:b1:87:2c:8b:1e:d3:cf:51:14:
         ed:12:0b:ec:67:2b:7f:3b:0e:8e:3c:50:bb:d1:dc:3b:40:1a:
         ec:44:30:c4:f6:65:c2:c3:5d:d8:cb:c2:6c:13:2e:5a:2d:76:
         c6:6b:5d:65:a5:7e:c2:bf:cb:fc:b1:50:b0:43:47:fc:a3:7b:
         07:d1:77:50:4f:d2:53:98:8f:a2:00:97:13:d9:b7:83:2e:d9:
         c4:2a:e6:b1:fc:2d:6c:ce:d1:61:73:aa:40:e0:ce:87:74:43:
         a2:f7:b5:d9:5f:46:79:97:28:c4:de:15:60:3b:3e:3f:3d:1d:
         14:f4:87:ef:b9:08:09:2a:fb:d0:d5:1b:4f:77:f9:0d:c9:4b:
         23:32:1c:06:04:a6:83:aa:00:9c:70:c2:2b:01:42:1e:f6:d6:
         d3:5c:f9:a8:b7:84:9e:44:12:9a:9f:a8:2a:89:56:69:a6:2f:
         e9:ee:67:e9:7e:32:b5:ef:6b:4e:f0:12:23:fa:85:3e:03:59:
         94:db:88:99:04:55:c4:d1:df:df:c6:e2:fd:61:c5:f6:af:dc:
         4c:e4:52:8f:f2:c8:07:39:dd:99:33:49:85:1e:df:e1:1f:08:
         6b:e0:d2:1b:93:db:32:05:4b:39:ee:b3:f1:b6:af:18:07:a7:
         24:9c:1e:75
-----BEGIN CERTIFICATE-----
MIIC9jCCAd6gAwIBAgICEAAwDQYJKoZIhvcNAQELBQAwHDEaMBgGA1UEAwwRQyBD
QSAtIE11bHRpLXJvb3QwHhcNMTYwMTA0MDAwMDAwWhcNMjYwMTAyMDAwMDAwWjAc
MRowGAYDVQQDDBFCIENBIC0gTXVsdGktcm9vdDCCASIwDQYJKoZIhvcNAQEBBQAD
ggEPADCCAQoCggEBAMpsVKs8VDNs1wTES8Q5Mtt6SeTh52DHNTMIWbpiv0nWBR8H
uLa9OC9rp+WN3nkn2DZYkmnM245qibR5q8+YUwgSF55RFbznj+WT2RouaKmTPNN6
daRcwvwWm7rfSV1zZeywzB66zJg50U6y1l/ofyQa+lawDTNGIlZPXPMWrVWKYjy8
UMI6WD5wTVrfmezHpiyPKqUuEbhYxdXoQy9ApSCAMip2XgYHSG1EYLohcmHiGuxk
XXJy8SGdBC9hNQsv8MD+UrjEQZy2E1ghgeMoJ01sJKMg+w+c1E80OtDRCITEQHFE
T+i+xR9dHDRkC2wcJPqpg0nG9U1/Y8AaqXeKwEMCAwEAAaNCMEAwDwYDVR0TAQH/
BAUwAwEB/zAdBgNVHQ4EFgQU0I0fsrwplnPvDHrCpAaWz9WMMdswDgYDVR0PAQH/
BAQDAgEGMA0GCSqGSIb3DQEBCwUAA4IBAQAeFnzX0e5jqaKxhyyLHtPPURTtEgvs
Zyt/Ow6OPFC70dw7QBrsRDDE9mXCw13Yy8JsEy5aLXbGa11lpX7Cv8v8sVCwQ0f8
o3sH0XdQT9JTmI+iAJcT2beDLtnEKuax/C1sztFhc6pA4M6HdEOi97XZX0Z5lyjE
3hVgOz4/PR0U9IfvuQgJKvvQ1RtPd/kNyUsjMhwGBKaDqgCccMIrAUIe9tbTXPmo
t4SeRBKan6gqiVZppi/p7mfpfjK172tO8BIj+oU+A1mU24iZBFXE0d/fxuL9YcX2
r9xM5FKP8sgHOd2ZM0mFHt/hHwhr4NIbk9syBUs57rPxtq8YB6cknB51
-----END CERTIFICATE-----
