Certificate:
    Data:
        Version: 3 (0x2)
        Serial Number: 4096 (0x1000)
    Signature Algorithm: sha256WithRSAEncryption
        Issuer: CN=E Root CA - Multi-root
        Validity
            Not Before: Jan  2 00:00:00 2016 GMT
            Not After : Jan  2 00:00:00 2026 GMT
        Subject: CN=E Root CA - Multi-root
        Subject Public Key Info:
            Public Key Algorithm: rsaEncryption
                Public-Key: (2048 bit)
                Modulus:
                    00:c0:14:71:12:fe:4f:36:78:5f:3a:b4:1e:d5:bb:
                    22:92:3e:57:bf:4d:e0:cf:1e:a1:fb:19:6d:88:3a:
                    59:93:79:57:42:bc:ab:7c:a0:0d:73:35:db:db:ba:
                    80:ef:a9:80:5b:b0:90:f5:2f:ea:17:7d:2b:92:a4:
                    5e:88:0a:16:f3:dc:f5:25:3d:7a:8d:8e:9b:e9:22:
                    74:dc:49:6e:87:ff:67:ae:3a:b8:09:63:63:e7:c2:
                    bd:77:d7:1b:cb:93:c6:4a:1d:7b:51:25:05:31:cb:
                    32:66:43:ea:2d:54:59:59:cd:de:d2:84:6f:d8:5a:
                    c1:5b:6c:2d:67:d5:57:23:25:a0:04:dc:45:64:02:
                    f0:de:1a:4a:62:c9:76:b5:f6:36:46:74:af:1f:18:
                    6c:f7:38:cf:34:e3:e1:3f:ad:51:41:cf:92:ed:d5:
                    27:f7:4a:e3:3c:d5:42:26:51:e3:b2:69:20:b1:1f:
                    0a:f6:fd:19:3c:8e:98:94:64:eb:fe:e6:67:a0:12:
                    f6:78:98:0f:44:b8:24:60:7c:de:e2:67:b9:0d:6e:
                    8c:06:80:43:8e:41:76:1d:09:40:0e:3b:e7:8d:0a:
                    d9:66:d7:34:6c:ce:7e:f9:25:6a:15:cf:9a:3e:ec:
                    30:e0:a3:b1:d2:a3:b1:31:f1:62:50:5c:b4:fe:dd:
                    54:61
                Exponent: 65537 (0x10001)
        X509v3 extensions:
            X509v3 Basic Constraints: critical
                CA:TRUE
            X509v3 Subject Key Identifier: 
                15:FA:C3:A2:2A:E0:2C:25:C5:BE:D7:BE:91:51:DD:45:F0:F1:5D:64
            X509v3 Key Usage: critical
                Certificate Sign, CRL Sign
    Signature Algorithm: sha256WithRSAEncryption
         bb:14:68:d2:09:0e:65:58:4d:d7:35:a0:a3:9b:e6:b4:2a:b4:
         80:32:3e:61:6d:87:19:a6:a8:d2:01:78:cd:07:0b:09:a9:de:
         5f:aa:86:43:dd:6f:d6:e0:3b:ab:60:71:d2:f0:aa:8f:14:93:
         42:37:12:55:02:e1:a7:ed:8e:db:c0:83:10:19:f0:f5:1e:35:
         77:84:9a:c1:79:9c:60:39:6f:50:00:66:73:6e:f0:b8:f7:75:
         67:3e:fa:3e:0c:d0:d6:54:4a:ae:da:38:06:92:57:39:cc:d9:
         b1:fa:60:5e:99:07:e6:97:3b:69:4d:e3:02:50:8d:60:76:8e:
         7e:e3:60:d4:65:41:9b:6c:b8:cc:b2:c4:7a:61:32:cb:67:49:
         b4:76:25:0c:7e:20:85:24:74:0a:90:0a:ce:73:f9:8e:ba:ce:
         de:6e:0a:cf:6d:1c:50:67:fa:a2:4e:32:d0:ad:91:35:5e:aa:
         b3:75:7e:23:14:29:a8:66:2a:82:ed:6c:ed:a9:9d:f6:77:20:
         3a:e1:0b:ab:1e:ee:1d:8a:20:ff:7f:4f:36:5a:0a:30:5a:c6:
         9c:aa:53:eb:3f:04:28:8a:6d:70:97:2a:99:d6:0c:db:a5:22:
         0b:e5:6b:24:cf:6e:2a:c7:4a:6b:cd:82:8e:13:84:18:b6:47:
         1b:9d:8b:83
-----BEGIN CERTIFICATE-----
MIIDADCCAeigAwIBAgICEAAwDQYJKoZIhvcNAQELBQAwITEfMB0GA1UEAwwWRSBS
b290IENBIC0gTXVsdGktcm9vdDAeFw0xNjAxMDIwMDAwMDBaFw0yNjAxMDIwMDAw
MDBaMCExHzAdBgNVBAMMFkUgUm9vdCBDQSAtIE11bHRpLXJvb3QwggEiMA0GCSqG
SIb3DQEBAQUAA4IBDwAwggEKAoIBAQDAFHES/k82eF86tB7VuyKSPle/TeDPHqH7
GW2IOlmTeVdCvKt8oA1zNdvbuoDvqYBbsJD1L+oXfSuSpF6IChbz3PUlPXqNjpvp
InTcSW6H/2euOrgJY2Pnwr131xvLk8ZKHXtRJQUxyzJmQ+otVFlZzd7ShG/YWsFb
bC1n1VcjJaAE3EVkAvDeGkpiyXa19jZGdK8fGGz3OM804+E/rVFBz5Lt1Sf3SuM8
1UImUeOyaSCxHwr2/Rk8jpiUZOv+5megEvZ4mA9EuCRgfN7iZ7kNbowGgEOOQXYd
CUAOO+eNCtlm1zRszn75JWoVz5o+7DDgo7HSo7Ex8WJQXLT+3VRhAgMBAAGjQjBA
MA8GA1UdEwEB/wQFMAMBAf8wHQYDVR0OBBYEFBX6w6Iq4Cwlxb7XvpFR3UXw8V1k
MA4GA1UdDwEB/wQEAwIBBjANBgkqhkiG9w0BAQsFAAOCAQEAuxRo0gkOZVhN1zWg
o5vmtCq0gDI+YW2HGaao0gF4zQcLCaneX6qGQ91v1uA7q2Bx0vCqjxSTQjcSVQLh
p+2O28CDEBnw9R41d4SawXmcYDlvUABmc27wuPd1Zz76PgzQ1lRKrto4BpJXOczZ
sfpgXpkH5pc7aU3jAlCNYHaOfuNg1GVBm2y4zLLEemEyy2dJtHYlDH4ghSR0CpAK
znP5jrrO3m4Kz20cUGf6ok4y0K2RNV6qs3V+IxQpqGYqgu1s7amd9ncgOuELqx7u
HYog/39PNloKMFrGnKpT6z8EKIptcJcqmdYM26UiC+VrJM9uKsdKa82CjhOEGLZH
G52Lgw==
-----END CERTIFICATE-----
