Certificate:
    Data:
        Version: 3 (0x2)
        Serial Number: 4098 (0x1002)
    Signature Algorithm: sha256WithRSAEncryption
        Issuer: CN=E Root CA - Multi-root
        Validity
            Not Before: Jan  2 00:00:00 2016 GMT
            Not After : Jan  2 00:00:00 2026 GMT
        Subject: CN=F CA - Multi-root
        Subject Public Key Info:
            Public Key Algorithm: rsaEncryption
                Public-Key: (2048 bit)
                Modulus:
                    00:c3:5d:d7:fd:02:9d:bb:14:27:d9:65:9e:e0:7e:
                    5c:68:0b:74:71:bb:88:1e:8e:e4:54:57:fd:f6:3f:
                    06:3a:3c:b1:5c:62:1f:cc:d8:b1:c6:90:c5:22:fc:
                    f4:2b:47:cf:83:fc:08:d9:fd:f3:aa:b6:e4:22:0c:
                    88:4a:74:63:2b:13:f1:6a:37:04:0e:de:3b:66:20:
                    b9:f5:e2:b8:cd:e6:8a:b6:fd:9d:93:b6:6d:8e:72:
                    71:b3:a1:03:7d:60:7a:94:a5:e9:93:c1:75:99:26:
                    26:63:3b:33:3a:3e:af:21:96:78:ff:2a:84:55:1d:
                    21:59:db:6a:cc:ba:d8:c1:cb:8d:ed:e6:ef:b6:67:
                    aa:85:6d:55:6c:39:8e:32:59:8b:df:ed:f6:40:ce:
                    46:b7:b6:fe:e6:75:39:ea:59:05:4c:2a:b4:82:95:
                    db:9e:26:71:71:b5:4c:dc:07:06:6f:31:dd:de:93:
                    f0:be:eb:55:39:ae:9a:7f:b0:3f:74:06:3c:e6:55:
                    e5:09:aa:d5:84:56:be:f5:67:c4:3c:47:69:16:a0:
                    a4:96:72:08:01:28:0b:ce:ba:a8:16:a9:88:79:b9:
                    ae:40:ed:1a:8b:5e:d8:ab:22:a0:3e:09:08:c5:77:
                    94:35:af:f5:de:f0:e6:b8:3d:86:02:4e:79:b2:9b:
                    84:7d
                Exponent: 65537 (0x10001)
        X509v3 extensions:
            X509v3 Basic Constraints: critical
                CA:TRUE
            X509v3 Subject Key Identifier: 
                02:E9:36:9C:1C:59:BF:B9:1B:DE:86:93:68:BB:A6:2B:07:FA:05:B7
            X509v3 Key Usage: critical
                Certificate Sign, CRL Sign
    Signature Algorithm: sha256WithRSAEncryption
         28:0a:35:5a:36:47:b7:fd:96:b0:42:62:5e:0a:fe:f8:10:70:
         da:65:67:9c:5a:33:68:4c:ba:5c:e8:3f:f3:04:3f:8f:e5:11:
         5f:0b:e2:70:2f:9f:6e:10:c4:18:cf:ea:a0:10:cf:52:71:08:
         34:12:b0:ea:77:f8:ec:f3:72:36:6f:c5:34:e7:9e:67:32:96:
         14:4f:d4:f9:cb:75:34:64:09:78:6e:95:91:f2:af:ef:46:73:
         42:01:91:49:db:c9:1c:a6:92:89:f4:8f:02:97:15:2e:20:f7:
         66:71:d9:28:b8:ad:4b:6b:74:e7:33:b6:25:c8:ea:1d:22:2a:
         2b:bb:ba:d6:77:5f:db:fb:bf:23:ab:7f:6d:97:89:f3:29:f4:
         68:31:6c:4b:02:75:61:ec:28:4a:fc:b4:3d:eb:88:4f:73:3e:
         bb:5e:9d:1b:c6:71:7b:2c:09:0b:03:b1:85:4b:fc:8d:4c:c4:
         96:b1:1c:ec:9a:85:94:4f:f2:14:b8:14:50:d1:21:0d:dd:4b:
         af:4a:ab:8a:3c:9b:d4:98:08:d3:2d:56:4c:3b:1e:46:cb:2c:
         f6:04:bc:ff:d7:85:10:6e:3b:5d:30:a3:29:88:a9:cd:17:de:
         23:92:2f:1f:52:7c:dc:69:5b:8f:b8:e7:0a:9b:f2:cf:0f:1d:
         94:b4:ff:1b
-----BEGIN CERTIFICATE-----
MIIC+zCCAeOgAwIBAgICEAIwDQYJKoZIhvcNAQELBQAwITEfMB0GA1UEAwwWRSBS
b290IENBIC0gTXVsdGktcm9vdDAeFw0xNjAxMDIwMDAwMDBaFw0yNjAxMDIwMDAw
MDBaMBwxGjAYBgNVBAMMEUYgQ0EgLSBNdWx0aS1yb290MIIBIjANBgkqhkiG9w0B
AQEFAAOCAQ8AMIIBCgKCAQEAw13X/QKduxQn2WWe4H5caAt0cbuIHo7kVFf99j8G
OjyxXGIfzNixxpDFIvz0K0fPg/wI2f3zqrbkIgyISnRjKxPxajcEDt47ZiC59eK4
zeaKtv2dk7ZtjnJxs6EDfWB6lKXpk8F1mSYmYzszOj6vIZZ4/yqEVR0hWdtqzLrY
wcuN7ebvtmeqhW1VbDmOMlmL3+32QM5Gt7b+5nU56lkFTCq0gpXbniZxcbVM3AcG
bzHd3pPwvutVOa6af7A/dAY85lXlCarVhFa+9WfEPEdpFqCklnIIASgLzrqoFqmI
ebmuQO0ai17YqyKgPgkIxXeUNa/13vDmuD2GAk55spuEfQIDAQABo0IwQDAPBgNV
HRMBAf8EBTADAQH/MB0GA1UdDgQWBBQC6TacHFm/uRvehpNou6YrB/oFtzAOBgNV
HQ8BAf8EBAMCAQYwDQYJKoZIhvcNAQELBQADggEBACgKNVo2R7f9lrBCYl4K/vgQ
cNplZ5xaM2hMulzoP/MEP4/lEV8L4nAvn24QxBjP6qAQz1JxCDQSsOp3+OzzcjZv
xTTnnmcylhRP1PnLdTRkCXhulZHyr+9Gc0IBkUnbyRymkon0jwKXFS4g92Zx2Si4
rUtrdOcztiXI6h0iKiu7utZ3X9v7vyOrf22XifMp9GgxbEsCdWHsKEr8tD3riE9z
PrtenRvGcXssCQsDsYVL/I1MxJaxHOyahZRP8hS4FFDRIQ3dS69Kq4o8m9SYCNMt
Vkw7HkbLLPYEvP/XhRBuO10woymIqc0X3iOSLx9SfNxpW4+45wqb8s8PHZS0/xs=
-----END CERTIFICATE-----
