-----BEGIN RSA PRIVATE KEY-----
MIIEowIBAAKCAQEApBiGPwljnNTABkWlkX/np7g9x/8N6Dn1QyenRCo7UwPjzRMj
Rl/gJ/CjeiWCsFK7A0+Z4ywbb1QFD39PdPmtsoiFQ2MGrJHxGbfaekJoamil4AJE
I+vRBQ09WDHuuiCeFhH1rrXDIcyE5xrSwox+RJM2vWwMBzXyTlc/s88hWv8WAulh
9MxKWiTaVfzG2kTWtypOMb+ggCRV7Vy8a4QSpAPMssLb7x4IvaO/7/w9Uzi5AIrW
QBrM8mqr50tnHK7/bUMSCMaXS3Pfhc8qpW7OIgLLY2w/AKo7sIeb1RMJMky9cXn/
BLGajS2gCmXVHlPE6w4UwLnzj29ktB0Rp0DnYQIDAQABAoIBAGRqPXxFmpdV+Uvd
QrwOsQuJSwUfprr8/IDjuw+TaEocj0Hm/CcMdHb8Yo1Uduy/M4GLLHg/fWpa193r
4guK3ifqMuJRrrvbctZyE1fNW2gCMb8qo9f3bijROUDHDXcIjrSiuNz4jTgZlxp0
55P1tS7xhwXTIGkpMeWOroSxs4+incyXj7yD5Wr9xk/01A+W463jPZM69aRzvOAb
mfxh67PYu6InLbTkNm3iWo7jXSEQbIFv6bPeboOXaxsa9Beo5NTPMaV7ex2mR0m0
yvZStCXtvwu9wkgvyameX9L2eBJWaMdL9LM9S5LVNrkFngJTbCd+qSYBd4axQ1dP
nYhuv4ECgYEA2sSzTLywORnUyM4mRZnrQVakqaPy9AuZLIHHcs5mQifgezb99qm+
GBQTV+xQwwPPPLLxuBICIlYUVl4TP82EUffRog0+eAPkqRuUv9jX8MTLFVzjicD/
O2LTRW9wyvpu7wOKL2f6Tf+kYjBxKmHAxAZTncBsFkXOyjZDS4DIwdUCgYEAwAXZ
kpAtavvCmpwKXRFMVhMCRpmXthxXeSmm/piY/O16mHLQfR5zBJ3DNyKUKlyaX1YM
DNgZKXLiREJZtbgT+Z1aHAybRMFyr37VU0nSMGU5G/I6ysLYsc3iCI/gk6YHM7Xc
OgqZleJ0s+EGwDx9DeWhLrYWN4W6e0kudrB6CV0CgYBAaI8ddaQwe5FxOXh9H27r
ArZiF5ntDgkf2Gm/PFNRAOqPfEZTO/ByqF51kWbJs7Js/YY7Glo0f8FnGDV0oG5n
r52xp1KQBR1qSGuH/DC/e0ELXhjDsuWyN0tacw/zQr4sco9Zm7RPCIf+PKLkxnj5
fZ9an49zE0RptoYjkZwJrQKBgE29EIxJWlnJestlCL0M176xC2bRn53Wc4NV3YmM
9cLP0aYONWGyBhaEWBfmI93Sh5y5FT/N7MHfBMNlqTPsRgn0LhrU77cyKd/qlSqW
5EU7dZdexXZ404mINE4LEXw05w2EPpgw2mTXvS9llnoVAvuxT0O969imhwyKYAkl
AQLxAoGBAKHMhs0tYdyWuH2J1zokddjOH0uGFkoZxhQmgVPC/WlTg05ClPVSNX5p
pZcX9Ouk+kvSb8UCWf/ovAwSN66Ri6AmbLt+W8Ibt9+Q9NMeb6XVppWaRTa2b9PX
WKNuu7TLrunx6XJw9NqXhAecreu7s4FMyn9GnhQ2H5LeJTb1C80D
-----END RSA PRIVATE KEY-----
Certificate:
    Data:
        Version: 3 (0x2)
        Serial Number: 4096 (0x1000)
    Signature Algorithm: sha256WithRSAEncryption
        Issuer: CN=B CA - Multi-root
        Validity
            Not Before: Feb 28 23:46:47 2017 GMT
            Not After : Feb 26 23:46:47 2027 GMT
        Subject: C=US, ST=California, L=Mountain View, O=Test CA, CN=127.0.0.1
        Subject Public Key Info:
            Public Key Algorithm: rsaEncryption
                Public-Key: (2048 bit)
                Modulus:
                    00:a4:18:86:3f:09:63:9c:d4:c0:06:45:a5:91:7f:
                    e7:a7:b8:3d:c7:ff:0d:e8:39:f5:43:27:a7:44:2a:
                    3b:53:03:e3:cd:13:23:46:5f:e0:27:f0:a3:7a:25:
                    82:b0:52:bb:03:4f:99:e3:2c:1b:6f:54:05:0f:7f:
                    4f:74:f9:ad:b2:88:85:43:63:06:ac:91:f1:19:b7:
                    da:7a:42:68:6a:68:a5:e0:02:44:23:eb:d1:05:0d:
                    3d:58:31:ee:ba:20:9e:16:11:f5:ae:b5:c3:21:cc:
                    84:e7:1a:d2:c2:8c:7e:44:93:36:bd:6c:0c:07:35:
                    f2:4e:57:3f:b3:cf:21:5a:ff:16:02:e9:61:f4:cc:
                    4a:5a:24:da:55:fc:c6:da:44:d6:b7:2a:4e:31:bf:
                    a0:80:24:55:ed:5c:bc:6b:84:12:a4:03:cc:b2:c2:
                    db:ef:1e:08:bd:a3:bf:ef:fc:3d:53:38:b9:00:8a:
                    d6:40:1a:cc:f2:6a:ab:e7:4b:67:1c:ae:ff:6d:43:
                    12:08:c6:97:4b:73:df:85:cf:2a:a5:6e:ce:22:02:
                    cb:63:6c:3f:00:aa:3b:b0:87:9b:d5:13:09:32:4c:
                    bd:71:79:ff:04:b1:9a:8d:2d:a0:0a:65:d5:1e:53:
                    c4:eb:0e:14:c0:b9:f3:8f:6f:64:b4:1d:11:a7:40:
                    e7:61
                Exponent: 65537 (0x10001)
        X509v3 extensions:
            X509v3 Basic Constraints: critical
                CA:FALSE
            X509v3 Subject Key Identifier: 
                28:6F:58:36:8F:1B:C5:99:18:5B:DC:A5:86:AF:89:F2:B4:3E:AF:51
            X509v3 Authority Key Identifier: 
                keyid:D0:8D:1F:B2:BC:29:96:73:EF:0C:7A:C2:A4:06:96:CF:D5:8C:31:DB

            X509v3 Extended Key Usage: 
                TLS Web Server Authentication, TLS Web Client Authentication
            X509v3 Subject Alternative Name: 
                IP Address:127.0.0.1
    Signature Algorithm: sha256WithRSAEncryption
         07:8f:f9:c6:33:3c:bc:74:20:21:92:46:7a:c5:df:76:18:47:
         63:0c:5e:e8:f3:97:ec:37:83:0b:4d:a4:1c:6b:0b:a2:28:db:
         5c:17:d9:91:77:00:4a:db:46:f9:68:ec:2a:f8:b5:82:0c:00:
         d1:88:0c:7c:b4:2d:e9:48:f5:a2:9d:a9:d5:bb:db:9d:56:96:
         c5:6c:46:da:23:a3:66:80:a5:9b:93:d0:df:9c:00:75:ac:48:
         ea:48:b4:22:ee:ff:db:eb:bb:8f:f0:de:16:a1:99:98:85:4c:
         b3:66:dd:22:96:96:97:48:ae:8a:2d:e9:a5:1c:5c:d9:dd:31:
         3f:58:7c:bb:2b:db:86:6a:53:e5:af:6d:85:3a:ca:92:5d:56:
         e2:02:90:d7:eb:98:0f:d8:ba:2a:d1:26:bb:82:5b:80:d5:2d:
         52:d7:40:4d:0d:0d:1e:fe:c2:89:be:e2:80:4d:cd:91:dc:f3:
         fa:19:25:3e:ba:a8:cf:48:d3:b6:35:a5:96:6e:a5:12:d1:65:
         65:a9:92:6b:d0:fc:05:25:7c:fb:76:48:38:15:7e:4f:95:03:
         b0:c3:55:89:bc:59:be:de:3c:fb:4b:5a:f1:3b:00:c1:03:59:
         6c:b3:8b:21:7e:84:75:30:19:8c:19:f6:99:40:ec:87:43:3b:
         89:d0:f5:6d
-----BEGIN CERTIFICATE-----
MIIDeTCCAmGgAwIBAgICEAAwDQYJKoZIhvcNAQELBQAwHDEaMBgGA1UEAwwRQiBD
QSAtIE11bHRpLXJvb3QwHhcNMTcwMjI4MjM0NjQ3WhcNMjcwMjI2MjM0NjQ3WjBg
MQswCQYDVQQGEwJVUzETMBEGA1UECAwKQ2FsaWZvcm5pYTEWMBQGA1UEBwwNTW91
bnRhaW4gVmlldzEQMA4GA1UECgwHVGVzdCBDQTESMBAGA1UEAwwJMTI3LjAuMC4x
MIIBIjANBgkqhkiG9w0BAQEFAAOCAQ8AMIIBCgKCAQEApBiGPwljnNTABkWlkX/n
p7g9x/8N6Dn1QyenRCo7UwPjzRMjRl/gJ/CjeiWCsFK7A0+Z4ywbb1QFD39PdPmt
soiFQ2MGrJHxGbfaekJoamil4AJEI+vRBQ09WDHuuiCeFhH1rrXDIcyE5xrSwox+
RJM2vWwMBzXyTlc/s88hWv8WAulh9MxKWiTaVfzG2kTWtypOMb+ggCRV7Vy8a4QS
pAPMssLb7x4IvaO/7/w9Uzi5AIrWQBrM8mqr50tnHK7/bUMSCMaXS3Pfhc8qpW7O
IgLLY2w/AKo7sIeb1RMJMky9cXn/BLGajS2gCmXVHlPE6w4UwLnzj29ktB0Rp0Dn
YQIDAQABo4GAMH4wDAYDVR0TAQH/BAIwADAdBgNVHQ4EFgQUKG9YNo8bxZkYW9yl
hq+J8rQ+r1EwHwYDVR0jBBgwFoAU0I0fsrwplnPvDHrCpAaWz9WMMdswHQYDVR0l
BBYwFAYIKwYBBQUHAwEGCCsGAQUFBwMCMA8GA1UdEQQIMAaHBH8AAAEwDQYJKoZI
hvcNAQELBQADggEBAAeP+cYzPLx0ICGSRnrF33YYR2MMXujzl+w3gwtNpBxrC6Io
21wX2ZF3AErbRvlo7Cr4tYIMANGIDHy0LelI9aKdqdW7251WlsVsRtojo2aApZuT
0N+cAHWsSOpItCLu/9vru4/w3hahmZiFTLNm3SKWlpdIroot6aUcXNndMT9YfLsr
24ZqU+WvbYU6ypJdVuICkNfrmA/YuirRJruCW4DVLVLXQE0NDR7+wom+4oBNzZHc
8/oZJT66qM9I07Y1pZZupRLRZWWpkmvQ/AUlfPt2SDgVfk+VA7DDVYm8Wb7ePPtL
WvE7AMEDWWyziyF+hHUwGYwZ9plA7IdDO4nQ9W0=
-----END CERTIFICATE-----
