Certificate:
    Data:
        Version: 3 (0x2)
        Serial Number: 4097 (0x1001)
    Signature Algorithm: sha256WithRSAEncryption
        Issuer: CN=D Root CA - Multi-root
        Validity
            Not Before: Jan  3 00:00:00 2016 GMT
            Not After : Jan  2 00:00:00 2026 GMT
        Subject: CN=C CA - Multi-root
        Subject Public Key Info:
            Public Key Algorithm: rsaEncryption
                Public-Key: (2048 bit)
                Modulus:
                    00:b2:c4:16:dc:07:88:ec:7e:a6:b3:25:c8:7b:9c:
                    e0:07:1e:40:a9:40:c0:4d:c8:73:27:ea:88:d8:58:
                    1a:1a:12:e3:9a:62:41:4c:a1:e9:b1:ce:c6:b2:f6:
                    3a:f6:89:3f:40:e6:0f:fb:15:4b:cb:d2:8d:8e:b6:
                    44:aa:63:fa:3b:c5:cc:af:86:05:70:aa:ec:f4:b3:
                    79:04:e6:3e:25:ec:ec:29:d6:c9:8b:7b:13:05:a7:
                    ff:51:5b:ab:4c:bc:d0:e4:bd:61:1a:d2:27:f1:2e:
                    5f:f4:51:81:c4:23:ba:20:c3:14:08:b4:be:78:49:
                    b5:13:1f:69:fd:f6:a7:59:91:84:a9:99:10:c8:9c:
                    63:9e:99:c2:f2:3d:61:9d:6a:6e:d4:26:9b:88:aa:
                    da:66:b3:0d:c6:99:03:16:13:3a:a4:9a:ff:08:3e:
                    59:df:a7:44:b7:17:99:3f:63:7f:3a:05:7e:ce:64:
                    78:34:e6:00:77:69:e6:03:24:a7:12:f3:e8:a8:50:
                    2b:55:16:fa:6e:65:c6:28:58:82:a4:20:7e:68:22:
                    e9:81:9e:a2:e8:0f:d6:87:c2:73:dd:c2:0c:cc:a3:
                    47:54:11:f5:3d:dc:51:52:57:b2:ce:77:8b:7a:ac:
                    a7:f0:2a:26:36:e6:26:b9:6a:83:da:b2:6f:c0:f6:
                    1e:f3
                Exponent: 65537 (0x10001)
        X509v3 extensions:
            X509v3 Basic Constraints: critical
                CA:TRUE
            X509v3 Subject Key Identifier: 
                E3:D1:05:98:4C:68:53:C2:DC:00:EE:AC:E5:A8:B8:FC:B9:72:D9:67
            X509v3 Key Usage: critical
                Certificate Sign, CRL Sign
    Signature Algorithm: sha256WithRSAEncryption
         7e:5b:a7:f2:c7:15:33:73:ce:e4:1e:77:ba:35:8b:44:01:57:
         b1:db:55:d3:54:95:c6:44:27:89:3f:e5:46:98:de:4a:7e:d9:
         e7:6c:e8:0d:d5:e2:98:31:07:21:9c:bd:01:47:be:0c:e1:b3:
         22:1e:ea:da:d4:fc:b5:37:5d:94:de:06:9b:69:a5:77:22:d0:
         96:80:35:9f:02:a0:cd:41:35:b3:21:94:ca:9b:03:4f:68:18:
         5e:6d:0d:95:95:17:ab:bd:00:9b:d0:78:f7:38:5e:37:df:33:
         15:2f:3e:64:27:c8:67:5e:c4:14:92:08:90:55:34:8d:73:d9:
         66:0c:30:dd:42:ab:71:73:b4:26:28:b1:13:90:7b:0a:10:f2:
         7c:75:07:36:1f:a5:b6:a5:97:ac:20:c7:83:0c:15:cf:5c:34:
         df:3f:8d:81:3e:c0:43:2a:ca:6f:c4:86:cc:2f:93:e1:5d:18:
         68:a4:bd:cc:5b:39:fa:40:fa:d4:a7:8b:7a:5d:b7:59:77:48:
         9b:ab:e0:71:b2:04:1f:79:ea:d1:cd:d3:24:52:5b:4b:21:2f:
         84:2e:b4:d6:87:1d:4f:fe:e7:6c:94:ff:d0:02:50:6b:bc:2a:
         1e:21:a5:ac:3e:73:b5:2f:ba:11:c5:6f:8f:f7:8e:eb:08:11:
         00:cb:e3:2d
-----BEGIN CERTIFICATE-----
MIIC+zCCAeOgAwIBAgICEAEwDQYJKoZIhvcNAQELBQAwITEfMB0GA1UEAwwWRCBS
b290IENBIC0gTXVsdGktcm9vdDAeFw0xNjAxMDMwMDAwMDBaFw0yNjAxMDIwMDAw
MDBaMBwxGjAYBgNVBAMMEUMgQ0EgLSBNdWx0aS1yb290MIIBIjANBgkqhkiG9w0B
AQEFAAOCAQ8AMIIBCgKCAQEAssQW3AeI7H6msyXIe5zgBx5AqUDATchzJ+qI2Fga
GhLjmmJBTKHpsc7GsvY69ok/QOYP+xVLy9KNjrZEqmP6O8XMr4YFcKrs9LN5BOY+
JezsKdbJi3sTBaf/UVurTLzQ5L1hGtIn8S5f9FGBxCO6IMMUCLS+eEm1Ex9p/fan
WZGEqZkQyJxjnpnC8j1hnWpu1CabiKraZrMNxpkDFhM6pJr/CD5Z36dEtxeZP2N/
OgV+zmR4NOYAd2nmAySnEvPoqFArVRb6bmXGKFiCpCB+aCLpgZ6i6A/Wh8Jz3cIM
zKNHVBH1PdxRUleyzneLeqyn8ComNuYmuWqD2rJvwPYe8wIDAQABo0IwQDAPBgNV
HRMBAf8EBTADAQH/MB0GA1UdDgQWBBTj0QWYTGhTwtwA7qzlqLj8uXLZZzAOBgNV
HQ8BAf8EBAMCAQYwDQYJKoZIhvcNAQELBQADggEBAH5bp/LHFTNzzuQed7o1i0QB
V7HbVdNUlcZEJ4k/5UaY3kp+2eds6A3V4pgxByGcvQFHvgzhsyIe6trU/LU3XZTe
BptppXci0JaANZ8CoM1BNbMhlMqbA09oGF5tDZWVF6u9AJvQePc4XjffMxUvPmQn
yGdexBSSCJBVNI1z2WYMMN1Cq3FztCYosROQewoQ8nx1BzYfpball6wgx4MMFc9c
NN8/jYE+wEMqym/Ehswvk+FdGGikvcxbOfpA+tSni3pdt1l3SJur4HGyBB956tHN
0yRSW0shL4QutNaHHU/+52yU/9ACUGu8Kh4hpaw+c7UvuhHFb4/3jusIEQDL4y0=
-----END CERTIFICATE-----
