[Created by: ./generate-certs.py]

Intermediate with matching subjectKeyIdentifier and notBefore C

Certificate:
    Data:
        Version: 3 (0x2)
        Serial Number:
            2b:cd:8e:76:ab:60:d4:bd:ab:bb:10:92:c3:00:e7:42:21:18:0e:38
        Signature Algorithm: sha256WithRSAEncryption
        Issuer: CN=Root
        Validity
            Not Before: Jan  3 12:00:00 2015 GMT
            Not After : Jan  1 12:00:00 2018 GMT
        Subject: CN=Intermediate
        Subject Public Key Info:
            Public Key Algorithm: rsaEncryption
                RSA Public-Key: (2048 bit)
                Modulus:
                    00:e3:d0:27:bf:09:20:d9:b7:33:f4:81:16:0f:cb:
                    3b:48:7a:22:c0:13:61:5c:d8:aa:7c:7e:bf:e1:c5:
                    bc:72:ad:d0:6a:5d:c4:58:9a:3c:ac:84:20:d8:69:
                    a2:c3:94:0d:9b:33:60:04:c5:64:76:56:52:e7:7f:
                    ee:f4:66:33:89:2a:59:4d:62:5c:1d:ee:bd:3e:d3:
                    a0:35:fd:58:b0:db:9f:ea:69:18:75:94:f2:b9:1e:
                    65:32:28:54:b5:72:1c:fa:47:da:32:8d:8a:45:5b:
                    48:0e:ab:1a:f7:9f:b4:47:b1:c2:1b:bf:22:37:8d:
                    e0:84:10:ec:91:5d:9f:31:29:be:94:5a:77:d1:de:
                    52:df:48:59:77:02:c9:93:59:90:73:79:cf:c6:d1:
                    b6:7f:01:1a:2b:2d:cc:b8:fd:ba:72:b8:52:5c:75:
                    15:7e:33:bd:dc:c7:e6:fb:ca:a2:b4:ab:ca:cc:db:
                    a0:23:f4:ea:7d:76:91:b3:ea:63:2a:df:b1:96:36:
                    ed:c2:9e:91:9f:db:45:b3:34:75:d9:41:4d:4f:1f:
                    c0:ef:02:6b:35:4c:19:a7:ec:f1:38:a9:67:85:6b:
                    06:26:22:89:9b:37:05:d1:d2:f9:45:0b:60:d5:7e:
                    5d:c2:98:a3:9d:96:57:be:4d:f0:9c:f0:71:b2:3b:
                    a4:1d
                Exponent: 65537 (0x10001)
        X509v3 extensions:
            X509v3 Subject Key Identifier: 
                E8:21:00:1D:6B:A1:AB:30:01:FB:6E:A8:8D:FA:B9:69:48:C2:89:1F
            X509v3 Authority Key Identifier: 
                keyid:EE:72:D7:3C:89:7F:07:DD:6B:92:25:09:8C:AC:48:9F:03:BA:09:0A

            Authority Information Access: 
                CA Issuers - URI:http://url-for-aia/Root.cer

            X509v3 CRL Distribution Points: 

                Full Name:
                  URI:http://url-for-crl/Root.crl

            X509v3 Key Usage: critical
                Certificate Sign, CRL Sign
            X509v3 Basic Constraints: critical
                CA:TRUE
    Signature Algorithm: sha256WithRSAEncryption
         af:7c:8b:d8:22:8a:1e:e4:5e:0e:2a:d9:27:31:7b:2e:f8:24:
         14:66:df:56:16:5e:f1:4c:23:bf:09:e4:d3:25:18:81:75:53:
         62:70:bc:99:9a:51:1d:dd:a7:10:17:7b:04:95:ce:b6:16:c6:
         f5:51:b1:c4:85:be:7b:26:1f:f7:8b:33:df:c1:e9:6c:a9:05:
         ff:0a:9e:91:fe:19:a0:39:20:4a:fb:50:d9:83:83:8b:32:c3:
         65:db:a2:6a:74:7b:7a:8c:ad:46:f3:cb:c3:ce:55:c6:77:0c:
         58:13:65:cf:9f:e3:3c:21:28:e3:e0:1b:e4:df:2f:a3:e6:66:
         57:8d:63:27:2f:69:4c:f3:a2:60:1b:ac:68:06:f9:9d:5b:b2:
         c9:49:da:aa:f3:82:5f:bb:51:4e:fa:bc:79:79:e3:0e:d4:53:
         73:56:a2:cb:1a:33:02:bf:c0:c4:f4:74:f6:a1:ed:26:61:dc:
         8c:57:e8:ae:1f:fc:9d:9c:30:13:47:ac:8c:c5:21:8e:f3:ce:
         81:a7:d1:1b:af:d9:5b:6e:0e:71:c6:35:08:3c:44:a3:bc:2d:
         72:5d:50:ce:c8:73:24:ea:c9:ae:9e:2b:21:68:45:a2:e2:59:
         72:1a:c1:5f:9c:0f:21:1d:67:03:73:70:49:63:5b:8e:34:9b:
         52:c8:93:22
-----BEGIN CERTIFICATE-----
MIIDgDCCAmigAwIBAgIUK82Odqtg1L2ruxCSwwDnQiEYDjgwDQYJKoZIhvcNAQEL
BQAwDzENMAsGA1UEAwwEUm9vdDAeFw0xNTAxMDMxMjAwMDBaFw0xODAxMDExMjAw
MDBaMBcxFTATBgNVBAMMDEludGVybWVkaWF0ZTCCASIwDQYJKoZIhvcNAQEBBQAD
ggEPADCCAQoCggEBAOPQJ78JINm3M/SBFg/LO0h6IsATYVzYqnx+v+HFvHKt0Gpd
xFiaPKyEINhposOUDZszYATFZHZWUud/7vRmM4kqWU1iXB3uvT7ToDX9WLDbn+pp
GHWU8rkeZTIoVLVyHPpH2jKNikVbSA6rGveftEexwhu/IjeN4IQQ7JFdnzEpvpRa
d9HeUt9IWXcCyZNZkHN5z8bRtn8BGistzLj9unK4Ulx1FX4zvdzH5vvKorSryszb
oCP06n12kbPqYyrfsZY27cKekZ/bRbM0ddlBTU8fwO8CazVMGafs8TipZ4VrBiYi
iZs3BdHS+UULYNV+XcKYo52WV75N8JzwcbI7pB0CAwEAAaOByzCByDAdBgNVHQ4E
FgQU6CEAHWuhqzAB+26ojfq5aUjCiR8wHwYDVR0jBBgwFoAU7nLXPIl/B91rkiUJ
jKxInwO6CQowNwYIKwYBBQUHAQEEKzApMCcGCCsGAQUFBzAChhtodHRwOi8vdXJs
LWZvci1haWEvUm9vdC5jZXIwLAYDVR0fBCUwIzAhoB+gHYYbaHR0cDovL3VybC1m
b3ItY3JsL1Jvb3QuY3JsMA4GA1UdDwEB/wQEAwIBBjAPBgNVHRMBAf8EBTADAQH/
MA0GCSqGSIb3DQEBCwUAA4IBAQCvfIvYIooe5F4OKtknMXsu+CQUZt9WFl7xTCO/
CeTTJRiBdVNicLyZmlEd3acQF3sElc62Fsb1UbHEhb57Jh/3izPfwelsqQX/Cp6R
/hmgOSBK+1DZg4OLMsNl26JqdHt6jK1G88vDzlXGdwxYE2XPn+M8ISjj4Bvk3y+j
5mZXjWMnL2lM86JgG6xoBvmdW7LJSdqq84Jfu1FO+rx5eeMO1FNzVqLLGjMCv8DE
9HT2oe0mYdyMV+iuH/ydnDATR6yMxSGO886Bp9Ebr9lbbg5xxjUIPESjvC1yXVDO
yHMk6smunishaEWi4llyGsFfnA8hHWcDc3BJY1uONJtSyJMi
-----END CERTIFICATE-----
