[Created by: ./generate-certs.py]

Intermediate with matching subjectKeyIdentifier and notBefore B

Certificate:
    Data:
        Version: 3 (0x2)
        Serial Number:
            2b:cd:8e:76:ab:60:d4:bd:ab:bb:10:92:c3:00:e7:42:21:18:0e:37
        Signature Algorithm: sha256WithRSAEncryption
        Issuer: CN=Root
        Validity
            Not Before: Jan  2 12:00:00 2015 GMT
            Not After : Jan  1 12:00:00 2018 GMT
        Subject: CN=Intermediate
        Subject Public Key Info:
            Public Key Algorithm: rsaEncryption
                RSA Public-Key: (2048 bit)
                Modulus:
                    00:e3:d0:27:bf:09:20:d9:b7:33:f4:81:16:0f:cb:
                    3b:48:7a:22:c0:13:61:5c:d8:aa:7c:7e:bf:e1:c5:
                    bc:72:ad:d0:6a:5d:c4:58:9a:3c:ac:84:20:d8:69:
                    a2:c3:94:0d:9b:33:60:04:c5:64:76:56:52:e7:7f:
                    ee:f4:66:33:89:2a:59:4d:62:5c:1d:ee:bd:3e:d3:
                    a0:35:fd:58:b0:db:9f:ea:69:18:75:94:f2:b9:1e:
                    65:32:28:54:b5:72:1c:fa:47:da:32:8d:8a:45:5b:
                    48:0e:ab:1a:f7:9f:b4:47:b1:c2:1b:bf:22:37:8d:
                    e0:84:10:ec:91:5d:9f:31:29:be:94:5a:77:d1:de:
                    52:df:48:59:77:02:c9:93:59:90:73:79:cf:c6:d1:
                    b6:7f:01:1a:2b:2d:cc:b8:fd:ba:72:b8:52:5c:75:
                    15:7e:33:bd:dc:c7:e6:fb:ca:a2:b4:ab:ca:cc:db:
                    a0:23:f4:ea:7d:76:91:b3:ea:63:2a:df:b1:96:36:
                    ed:c2:9e:91:9f:db:45:b3:34:75:d9:41:4d:4f:1f:
                    c0:ef:02:6b:35:4c:19:a7:ec:f1:38:a9:67:85:6b:
                    06:26:22:89:9b:37:05:d1:d2:f9:45:0b:60:d5:7e:
                    5d:c2:98:a3:9d:96:57:be:4d:f0:9c:f0:71:b2:3b:
                    a4:1d
                Exponent: 65537 (0x10001)
        X509v3 extensions:
            X509v3 Subject Key Identifier: 
                E8:21:00:1D:6B:A1:AB:30:01:FB:6E:A8:8D:FA:B9:69:48:C2:89:1F
            X509v3 Authority Key Identifier: 
                keyid:EE:72:D7:3C:89:7F:07:DD:6B:92:25:09:8C:AC:48:9F:03:BA:09:0A

            Authority Information Access: 
                CA Issuers - URI:http://url-for-aia/Root.cer

            X509v3 CRL Distribution Points: 

                Full Name:
                  URI:http://url-for-crl/Root.crl

            X509v3 Key Usage: critical
                Certificate Sign, CRL Sign
            X509v3 Basic Constraints: critical
                CA:TRUE
    Signature Algorithm: sha256WithRSAEncryption
         e5:76:8b:8d:2b:67:a9:d8:c3:61:a9:16:e8:9a:e7:74:b0:e3:
         74:bd:ef:1f:6c:b4:83:01:45:fc:b6:bc:a0:d0:66:28:dd:b2:
         83:d7:3d:9f:da:e7:61:35:8c:c1:e5:ce:99:96:28:0e:79:8f:
         ce:8a:94:ac:75:55:fe:a8:5d:50:e5:8d:b5:59:94:ff:34:ab:
         2b:cb:9c:f7:77:97:96:33:cc:88:c9:a0:b9:6c:09:49:c2:30:
         c8:26:66:f7:60:66:e2:cc:f5:0a:9a:ef:1a:e8:db:03:98:d8:
         4f:8a:bd:f5:a9:d5:d2:1d:3d:ca:98:0d:71:23:3d:d5:b5:a5:
         15:0f:d0:bc:1a:42:d8:b8:25:62:d5:b6:70:e3:e9:04:f2:8c:
         07:c6:22:3b:78:94:7b:ec:29:35:22:90:24:1d:64:e8:5b:96:
         e1:f2:b1:c4:60:ec:03:49:b6:5b:88:b5:7f:28:7e:29:ff:f4:
         ac:74:97:d5:b2:2c:4e:c2:48:5d:9e:50:5d:3f:82:6d:28:51:
         e5:1d:44:fa:8c:53:02:c6:42:84:f6:62:25:c1:30:ad:37:20:
         8e:e8:52:93:45:32:7b:90:64:95:e4:93:6d:75:1b:92:5a:48:
         f3:bb:d6:ba:e5:22:5a:f2:22:3d:a3:77:db:5b:d2:42:cc:e8:
         5d:60:ff:73
-----BEGIN CERTIFICATE-----
MIIDgDCCAmigAwIBAgIUK82Odqtg1L2ruxCSwwDnQiEYDjcwDQYJKoZIhvcNAQEL
BQAwDzENMAsGA1UEAwwEUm9vdDAeFw0xNTAxMDIxMjAwMDBaFw0xODAxMDExMjAw
MDBaMBcxFTATBgNVBAMMDEludGVybWVkaWF0ZTCCASIwDQYJKoZIhvcNAQEBBQAD
ggEPADCCAQoCggEBAOPQJ78JINm3M/SBFg/LO0h6IsATYVzYqnx+v+HFvHKt0Gpd
xFiaPKyEINhposOUDZszYATFZHZWUud/7vRmM4kqWU1iXB3uvT7ToDX9WLDbn+pp
GHWU8rkeZTIoVLVyHPpH2jKNikVbSA6rGveftEexwhu/IjeN4IQQ7JFdnzEpvpRa
d9HeUt9IWXcCyZNZkHN5z8bRtn8BGistzLj9unK4Ulx1FX4zvdzH5vvKorSryszb
oCP06n12kbPqYyrfsZY27cKekZ/bRbM0ddlBTU8fwO8CazVMGafs8TipZ4VrBiYi
iZs3BdHS+UULYNV+XcKYo52WV75N8JzwcbI7pB0CAwEAAaOByzCByDAdBgNVHQ4E
FgQU6CEAHWuhqzAB+26ojfq5aUjCiR8wHwYDVR0jBBgwFoAU7nLXPIl/B91rkiUJ
jKxInwO6CQowNwYIKwYBBQUHAQEEKzApMCcGCCsGAQUFBzAChhtodHRwOi8vdXJs
LWZvci1haWEvUm9vdC5jZXIwLAYDVR0fBCUwIzAhoB+gHYYbaHR0cDovL3VybC1m
b3ItY3JsL1Jvb3QuY3JsMA4GA1UdDwEB/wQEAwIBBjAPBgNVHRMBAf8EBTADAQH/
MA0GCSqGSIb3DQEBCwUAA4IBAQDldouNK2ep2MNhqRbomud0sON0ve8fbLSDAUX8
tryg0GYo3bKD1z2f2udhNYzB5c6ZligOeY/OipSsdVX+qF1Q5Y21WZT/NKsry5z3
d5eWM8yIyaC5bAlJwjDIJmb3YGbizPUKmu8a6NsDmNhPir31qdXSHT3KmA1xIz3V
taUVD9C8GkLYuCVi1bZw4+kE8owHxiI7eJR77Ck1IpAkHWToW5bh8rHEYOwDSbZb
iLV/KH4p//SsdJfVsixOwkhdnlBdP4JtKFHlHUT6jFMCxkKE9mIlwTCtNyCO6FKT
RTJ7kGSV5JNtdRuSWkjzu9a65SJa8iI9o3fbW9JCzOhdYP9z
-----END CERTIFICATE-----
