[Created by: ./generate-certs.py]

Intermediate with different subjectKeyIdentifier and notBefore C

Certificate:
    Data:
        Version: 3 (0x2)
        Serial Number:
            2b:cd:8e:76:ab:60:d4:bd:ab:bb:10:92:c3:00:e7:42:21:18:0e:3f
        Signature Algorithm: sha256WithRSAEncryption
        Issuer: CN=Root
        Validity
            Not Before: Jan  3 12:00:00 2015 GMT
            Not After : Jan  1 12:00:00 2018 GMT
        Subject: CN=Intermediate
        Subject Public Key Info:
            Public Key Algorithm: rsaEncryption
                RSA Public-Key: (2048 bit)
                Modulus:
                    00:e6:0c:06:e3:3d:b8:99:af:6c:31:37:eb:ff:4b:
                    5b:ba:44:3d:bc:4b:33:fe:a6:db:2e:d0:c6:24:73:
                    e6:ad:1d:92:8b:f3:65:f9:c7:87:a2:58:6a:b1:73:
                    ce:60:67:7f:f6:d5:09:4e:26:07:7c:84:72:19:00:
                    22:90:21:1b:ae:89:1e:ed:ef:07:17:b1:1c:09:cb:
                    32:d5:32:86:6c:cd:93:5e:23:50:3e:c9:69:22:48:
                    4a:bf:a0:7b:59:f8:94:72:82:93:45:3f:89:19:49:
                    d3:5e:45:de:fc:3f:d1:1a:3a:f2:2f:46:b1:dd:4b:
                    e2:43:fd:f5:62:57:d7:94:37:87:7d:96:a0:de:eb:
                    5d:b4:7b:fd:63:60:47:d2:e7:12:3d:f9:a6:3b:cc:
                    8a:ae:3f:8a:5c:f3:6a:52:9f:e0:ee:bd:38:00:34:
                    a4:17:f6:2f:07:49:58:5e:26:f3:31:42:2f:60:68:
                    2f:94:07:e9:61:12:e8:43:f9:66:df:a8:d6:9d:fc:
                    cc:25:0d:6a:ec:ff:a6:39:cf:40:93:39:ca:91:cd:
                    88:d2:1d:48:e1:33:08:8d:35:18:76:87:aa:71:0a:
                    35:f4:d2:d8:fd:f7:87:3f:32:68:15:bf:30:8a:c6:
                    52:83:ac:75:cd:3a:4c:0d:b9:b3:57:68:70:c0:72:
                    f0:8d
                Exponent: 65537 (0x10001)
        X509v3 extensions:
            X509v3 Subject Key Identifier: 
                7B:CC:78:52:6F:4B:49:86:29:2C:3E:20:93:A4:7E:2E:B8:44:16:A9
            X509v3 Authority Key Identifier: 
                keyid:EE:72:D7:3C:89:7F:07:DD:6B:92:25:09:8C:AC:48:9F:03:BA:09:0A

            Authority Information Access: 
                CA Issuers - URI:http://url-for-aia/Root.cer

            X509v3 CRL Distribution Points: 

                Full Name:
                  URI:http://url-for-crl/Root.crl

            X509v3 Key Usage: critical
                Certificate Sign, CRL Sign
            X509v3 Basic Constraints: critical
                CA:TRUE
    Signature Algorithm: sha256WithRSAEncryption
         09:76:b2:55:86:b6:95:7f:f8:9c:48:3e:3c:5a:a9:c1:87:1f:
         29:89:67:9b:ce:ab:00:0a:11:82:ee:40:1b:5c:3f:17:39:7e:
         9b:26:a7:13:4d:dd:d6:15:32:53:5a:3e:ac:53:2d:ef:2e:77:
         e9:f7:ca:df:03:7e:22:ef:cf:ae:72:95:eb:e8:67:7a:d8:52:
         ac:17:31:d6:e0:ad:97:aa:18:9e:e6:78:b7:cf:ca:5b:62:67:
         d3:d0:87:56:0e:e2:70:15:09:62:28:d0:c1:c8:0f:46:6c:23:
         9e:e7:1e:7f:59:80:f4:14:dd:b4:2f:8c:48:c4:cb:5f:4e:54:
         7b:42:d9:7d:11:44:00:59:91:87:02:47:87:77:aa:6a:ee:95:
         e3:9d:87:61:4e:f9:ca:1d:9c:74:de:71:0d:dc:8a:5e:9f:d7:
         37:1f:03:c7:04:36:9b:52:b4:4f:fc:6b:28:ba:86:84:92:24:
         d7:8e:da:3b:4d:ff:af:b7:09:0d:59:42:fc:32:e8:4d:5c:68:
         aa:2a:0e:86:71:0e:91:d2:51:a2:bb:61:64:48:a2:cc:99:c4:
         97:b9:b1:3b:bf:96:d9:ac:39:15:10:66:ab:a8:2e:7b:51:5f:
         68:54:46:56:e9:55:99:52:b7:74:32:9a:3d:d3:6a:aa:f7:56:
         39:12:b8:8d
-----BEGIN CERTIFICATE-----
MIIDgDCCAmigAwIBAgIUK82Odqtg1L2ruxCSwwDnQiEYDj8wDQYJKoZIhvcNAQEL
BQAwDzENMAsGA1UEAwwEUm9vdDAeFw0xNTAxMDMxMjAwMDBaFw0xODAxMDExMjAw
MDBaMBcxFTATBgNVBAMMDEludGVybWVkaWF0ZTCCASIwDQYJKoZIhvcNAQEBBQAD
ggEPADCCAQoCggEBAOYMBuM9uJmvbDE36/9LW7pEPbxLM/6m2y7QxiRz5q0dkovz
ZfnHh6JYarFzzmBnf/bVCU4mB3yEchkAIpAhG66JHu3vBxexHAnLMtUyhmzNk14j
UD7JaSJISr+ge1n4lHKCk0U/iRlJ015F3vw/0Ro68i9Gsd1L4kP99WJX15Q3h32W
oN7rXbR7/WNgR9LnEj35pjvMiq4/ilzzalKf4O69OAA0pBf2LwdJWF4m8zFCL2Bo
L5QH6WES6EP5Zt+o1p38zCUNauz/pjnPQJM5ypHNiNIdSOEzCI01GHaHqnEKNfTS
2P33hz8yaBW/MIrGUoOsdc06TA25s1docMBy8I0CAwEAAaOByzCByDAdBgNVHQ4E
FgQUe8x4Um9LSYYpLD4gk6R+LrhEFqkwHwYDVR0jBBgwFoAU7nLXPIl/B91rkiUJ
jKxInwO6CQowNwYIKwYBBQUHAQEEKzApMCcGCCsGAQUFBzAChhtodHRwOi8vdXJs
LWZvci1haWEvUm9vdC5jZXIwLAYDVR0fBCUwIzAhoB+gHYYbaHR0cDovL3VybC1m
b3ItY3JsL1Jvb3QuY3JsMA4GA1UdDwEB/wQEAwIBBjAPBgNVHRMBAf8EBTADAQH/
MA0GCSqGSIb3DQEBCwUAA4IBAQAJdrJVhraVf/icSD48WqnBhx8piWebzqsAChGC
7kAbXD8XOX6bJqcTTd3WFTJTWj6sUy3vLnfp98rfA34i78+ucpXr6Gd62FKsFzHW
4K2Xqhie5ni3z8pbYmfT0IdWDuJwFQliKNDByA9GbCOe5x5/WYD0FN20L4xIxMtf
TlR7Qtl9EUQAWZGHAkeHd6pq7pXjnYdhTvnKHZx03nEN3Ipen9c3HwPHBDabUrRP
/GsouoaEkiTXjto7Tf+vtwkNWUL8MuhNXGiqKg6GcQ6R0lGiu2FkSKLMmcSXubE7
v5bZrDkVEGarqC57UV9oVEZW6VWZUrd0Mpo902qq91Y5EriN
-----END CERTIFICATE-----
