[Created by: ./generate-certs.py]

Intermediate with no subjectKeyIdentifier and notBefore C

Certificate:
    Data:
        Version: 3 (0x2)
        Serial Number:
            2b:cd:8e:76:ab:60:d4:bd:ab:bb:10:92:c3:00:e7:42:21:18:0e:3c
        Signature Algorithm: sha256WithRSAEncryption
        Issuer: CN=Root
        Validity
            Not Before: Jan  3 12:00:00 2015 GMT
            Not After : Jan  1 12:00:00 2018 GMT
        Subject: CN=Intermediate
        Subject Public Key Info:
            Public Key Algorithm: rsaEncryption
                RSA Public-Key: (2048 bit)
                Modulus:
                    00:e3:d0:27:bf:09:20:d9:b7:33:f4:81:16:0f:cb:
                    3b:48:7a:22:c0:13:61:5c:d8:aa:7c:7e:bf:e1:c5:
                    bc:72:ad:d0:6a:5d:c4:58:9a:3c:ac:84:20:d8:69:
                    a2:c3:94:0d:9b:33:60:04:c5:64:76:56:52:e7:7f:
                    ee:f4:66:33:89:2a:59:4d:62:5c:1d:ee:bd:3e:d3:
                    a0:35:fd:58:b0:db:9f:ea:69:18:75:94:f2:b9:1e:
                    65:32:28:54:b5:72:1c:fa:47:da:32:8d:8a:45:5b:
                    48:0e:ab:1a:f7:9f:b4:47:b1:c2:1b:bf:22:37:8d:
                    e0:84:10:ec:91:5d:9f:31:29:be:94:5a:77:d1:de:
                    52:df:48:59:77:02:c9:93:59:90:73:79:cf:c6:d1:
                    b6:7f:01:1a:2b:2d:cc:b8:fd:ba:72:b8:52:5c:75:
                    15:7e:33:bd:dc:c7:e6:fb:ca:a2:b4:ab:ca:cc:db:
                    a0:23:f4:ea:7d:76:91:b3:ea:63:2a:df:b1:96:36:
                    ed:c2:9e:91:9f:db:45:b3:34:75:d9:41:4d:4f:1f:
                    c0:ef:02:6b:35:4c:19:a7:ec:f1:38:a9:67:85:6b:
                    06:26:22:89:9b:37:05:d1:d2:f9:45:0b:60:d5:7e:
                    5d:c2:98:a3:9d:96:57:be:4d:f0:9c:f0:71:b2:3b:
                    a4:1d
                Exponent: 65537 (0x10001)
        X509v3 extensions:
            Authority Information Access: 
                CA Issuers - URI:http://url-for-aia/Root.cer

            X509v3 CRL Distribution Points: 

                Full Name:
                  URI:http://url-for-crl/Root.crl

            X509v3 Key Usage: critical
                Certificate Sign, CRL Sign
            X509v3 Basic Constraints: critical
                CA:TRUE
    Signature Algorithm: sha256WithRSAEncryption
         8d:92:cd:22:62:7e:2f:a9:54:84:4d:8b:4c:b0:1e:77:5a:01:
         58:cc:b1:a7:06:4e:06:11:6e:df:7e:e4:88:69:cd:cf:86:3e:
         79:3e:d5:ca:8f:51:27:25:7d:4d:40:d9:b2:b1:e8:b5:3c:8c:
         e9:f8:2c:b4:e4:07:b0:8c:e5:0c:f0:2e:73:f0:dc:80:51:3f:
         f7:51:15:10:6b:b4:e5:c9:f2:74:19:98:d2:03:b8:24:cf:d1:
         5d:83:a9:13:a5:a2:c5:32:7b:7a:a9:c8:dd:66:64:1a:a6:6d:
         d4:c1:7e:3e:57:95:ee:42:96:c8:3e:33:74:1d:94:73:95:d8:
         f2:e3:8b:c6:d2:4e:18:6a:fc:ed:e7:71:e4:ee:04:cd:93:6e:
         c5:28:98:e5:7f:dd:ee:db:a9:c6:c5:ff:1f:5d:67:35:4b:49:
         da:94:18:a7:2b:c3:6e:3d:a6:84:be:34:70:3a:e3:5b:06:3a:
         5a:75:a0:79:b7:a8:18:d6:2f:a4:65:05:39:88:b0:05:1e:f1:
         dc:2c:fe:ce:0e:49:a2:e8:82:db:7f:24:a7:21:d7:74:3e:84:
         8d:ef:d2:76:1c:de:e2:5d:90:08:7d:a4:48:c7:45:96:2a:5c:
         86:07:60:6c:18:ab:3e:8c:dc:de:1c:04:0c:62:52:e4:dc:12:
         3d:89:c2:04
-----BEGIN CERTIFICATE-----
MIIDQDCCAiigAwIBAgIUK82Odqtg1L2ruxCSwwDnQiEYDjwwDQYJKoZIhvcNAQEL
BQAwDzENMAsGA1UEAwwEUm9vdDAeFw0xNTAxMDMxMjAwMDBaFw0xODAxMDExMjAw
MDBaMBcxFTATBgNVBAMMDEludGVybWVkaWF0ZTCCASIwDQYJKoZIhvcNAQEBBQAD
ggEPADCCAQoCggEBAOPQJ78JINm3M/SBFg/LO0h6IsATYVzYqnx+v+HFvHKt0Gpd
xFiaPKyEINhposOUDZszYATFZHZWUud/7vRmM4kqWU1iXB3uvT7ToDX9WLDbn+pp
GHWU8rkeZTIoVLVyHPpH2jKNikVbSA6rGveftEexwhu/IjeN4IQQ7JFdnzEpvpRa
d9HeUt9IWXcCyZNZkHN5z8bRtn8BGistzLj9unK4Ulx1FX4zvdzH5vvKorSryszb
oCP06n12kbPqYyrfsZY27cKekZ/bRbM0ddlBTU8fwO8CazVMGafs8TipZ4VrBiYi
iZs3BdHS+UULYNV+XcKYo52WV75N8JzwcbI7pB0CAwEAAaOBizCBiDA3BggrBgEF
BQcBAQQrMCkwJwYIKwYBBQUHMAKGG2h0dHA6Ly91cmwtZm9yLWFpYS9Sb290LmNl
cjAsBgNVHR8EJTAjMCGgH6AdhhtodHRwOi8vdXJsLWZvci1jcmwvUm9vdC5jcmww
DgYDVR0PAQH/BAQDAgEGMA8GA1UdEwEB/wQFMAMBAf8wDQYJKoZIhvcNAQELBQAD
ggEBAI2SzSJifi+pVIRNi0ywHndaAVjMsacGTgYRbt9+5Ihpzc+GPnk+1cqPUScl
fU1A2bKx6LU8jOn4LLTkB7CM5QzwLnPw3IBRP/dRFRBrtOXJ8nQZmNIDuCTP0V2D
qROlosUye3qpyN1mZBqmbdTBfj5Xle5Clsg+M3QdlHOV2PLji8bSThhq/O3nceTu
BM2TbsUomOV/3e7bqcbF/x9dZzVLSdqUGKcrw249poS+NHA641sGOlp1oHm3qBjW
L6RlBTmIsAUe8dws/s4OSaLogtt/JKch13Q+hI3v0nYc3uJdkAh9pEjHRZYqXIYH
YGwYqz6M3N4cBAxiUuTcEj2JwgQ=
-----END CERTIFICATE-----
