[Created by: ./generate-certs.py]

Intermediate with no subjectKeyIdentifier and notBefore B

Certificate:
    Data:
        Version: 3 (0x2)
        Serial Number:
            2b:cd:8e:76:ab:60:d4:bd:ab:bb:10:92:c3:00:e7:42:21:18:0e:3b
        Signature Algorithm: sha256WithRSAEncryption
        Issuer: CN=Root
        Validity
            Not Before: Jan  2 12:00:00 2015 GMT
            Not After : Jan  1 12:00:00 2018 GMT
        Subject: CN=Intermediate
        Subject Public Key Info:
            Public Key Algorithm: rsaEncryption
                RSA Public-Key: (2048 bit)
                Modulus:
                    00:e3:d0:27:bf:09:20:d9:b7:33:f4:81:16:0f:cb:
                    3b:48:7a:22:c0:13:61:5c:d8:aa:7c:7e:bf:e1:c5:
                    bc:72:ad:d0:6a:5d:c4:58:9a:3c:ac:84:20:d8:69:
                    a2:c3:94:0d:9b:33:60:04:c5:64:76:56:52:e7:7f:
                    ee:f4:66:33:89:2a:59:4d:62:5c:1d:ee:bd:3e:d3:
                    a0:35:fd:58:b0:db:9f:ea:69:18:75:94:f2:b9:1e:
                    65:32:28:54:b5:72:1c:fa:47:da:32:8d:8a:45:5b:
                    48:0e:ab:1a:f7:9f:b4:47:b1:c2:1b:bf:22:37:8d:
                    e0:84:10:ec:91:5d:9f:31:29:be:94:5a:77:d1:de:
                    52:df:48:59:77:02:c9:93:59:90:73:79:cf:c6:d1:
                    b6:7f:01:1a:2b:2d:cc:b8:fd:ba:72:b8:52:5c:75:
                    15:7e:33:bd:dc:c7:e6:fb:ca:a2:b4:ab:ca:cc:db:
                    a0:23:f4:ea:7d:76:91:b3:ea:63:2a:df:b1:96:36:
                    ed:c2:9e:91:9f:db:45:b3:34:75:d9:41:4d:4f:1f:
                    c0:ef:02:6b:35:4c:19:a7:ec:f1:38:a9:67:85:6b:
                    06:26:22:89:9b:37:05:d1:d2:f9:45:0b:60:d5:7e:
                    5d:c2:98:a3:9d:96:57:be:4d:f0:9c:f0:71:b2:3b:
                    a4:1d
                Exponent: 65537 (0x10001)
        X509v3 extensions:
            Authority Information Access: 
                CA Issuers - URI:http://url-for-aia/Root.cer

            X509v3 CRL Distribution Points: 

                Full Name:
                  URI:http://url-for-crl/Root.crl

            X509v3 Key Usage: critical
                Certificate Sign, CRL Sign
            X509v3 Basic Constraints: critical
                CA:TRUE
    Signature Algorithm: sha256WithRSAEncryption
         19:62:8a:71:aa:81:e8:d7:2f:a6:e8:ba:75:59:64:52:9c:00:
         75:67:a2:7c:30:16:1e:bd:db:bf:91:fa:ae:02:37:27:74:5a:
         10:d0:bf:4c:d8:c1:54:b6:20:e3:d7:40:d9:3f:60:17:fe:a1:
         1d:3d:68:54:8f:06:59:12:bd:5c:53:7b:cb:cf:9c:53:9d:aa:
         67:d0:2f:44:29:2d:8d:78:8c:11:cc:52:b0:c7:24:5a:ed:62:
         ec:fe:d3:a8:01:64:68:3c:35:bd:ec:48:b7:ce:16:1f:78:d6:
         1e:5f:50:a9:6d:cc:a1:d3:fd:8d:cf:f4:89:d8:a3:ad:13:62:
         f9:00:3a:9e:82:14:d0:ed:72:22:d2:c2:c7:14:52:4e:86:88:
         22:2a:4a:99:04:d5:ab:71:e8:35:c1:80:f1:a8:6b:0f:3d:f8:
         73:31:fe:d0:aa:59:ca:a1:5c:02:88:8c:7d:7e:85:5d:86:c4:
         d1:fa:58:0f:eb:c8:4d:f4:b9:4d:0b:47:68:a9:e7:2d:7e:32:
         7a:eb:6d:cc:ae:54:eb:a0:b2:47:c5:0c:fc:9b:9b:db:f0:f6:
         a6:5a:cc:86:05:28:c2:8a:ab:3a:49:c2:34:01:d0:ae:bd:52:
         15:34:4d:dd:1d:ab:45:9f:21:bc:cd:be:0d:73:b0:ff:1e:0c:
         9a:56:27:51
-----BEGIN CERTIFICATE-----
MIIDQDCCAiigAwIBAgIUK82Odqtg1L2ruxCSwwDnQiEYDjswDQYJKoZIhvcNAQEL
BQAwDzENMAsGA1UEAwwEUm9vdDAeFw0xNTAxMDIxMjAwMDBaFw0xODAxMDExMjAw
MDBaMBcxFTATBgNVBAMMDEludGVybWVkaWF0ZTCCASIwDQYJKoZIhvcNAQEBBQAD
ggEPADCCAQoCggEBAOPQJ78JINm3M/SBFg/LO0h6IsATYVzYqnx+v+HFvHKt0Gpd
xFiaPKyEINhposOUDZszYATFZHZWUud/7vRmM4kqWU1iXB3uvT7ToDX9WLDbn+pp
GHWU8rkeZTIoVLVyHPpH2jKNikVbSA6rGveftEexwhu/IjeN4IQQ7JFdnzEpvpRa
d9HeUt9IWXcCyZNZkHN5z8bRtn8BGistzLj9unK4Ulx1FX4zvdzH5vvKorSryszb
oCP06n12kbPqYyrfsZY27cKekZ/bRbM0ddlBTU8fwO8CazVMGafs8TipZ4VrBiYi
iZs3BdHS+UULYNV+XcKYo52WV75N8JzwcbI7pB0CAwEAAaOBizCBiDA3BggrBgEF
BQcBAQQrMCkwJwYIKwYBBQUHMAKGG2h0dHA6Ly91cmwtZm9yLWFpYS9Sb290LmNl
cjAsBgNVHR8EJTAjMCGgH6AdhhtodHRwOi8vdXJsLWZvci1jcmwvUm9vdC5jcmww
DgYDVR0PAQH/BAQDAgEGMA8GA1UdEwEB/wQFMAMBAf8wDQYJKoZIhvcNAQELBQAD
ggEBABliinGqgejXL6bounVZZFKcAHVnonwwFh6927+R+q4CNyd0WhDQv0zYwVS2
IOPXQNk/YBf+oR09aFSPBlkSvVxTe8vPnFOdqmfQL0QpLY14jBHMUrDHJFrtYuz+
06gBZGg8Nb3sSLfOFh941h5fUKltzKHT/Y3P9InYo60TYvkAOp6CFNDtciLSwscU
Uk6GiCIqSpkE1atx6DXBgPGoaw89+HMx/tCqWcqhXAKIjH1+hV2GxNH6WA/ryE30
uU0LR2ip5y1+MnrrbcyuVOugskfFDPybm9vw9qZazIYFKMKKqzpJwjQB0K69UhU0
Td0dq0WfIbzNvg1zsP8eDJpWJ1E=
-----END CERTIFICATE-----
