[Created by: ./generate-certs.py]

Intermediate with no subjectKeyIdentifier and notBefore A

Certificate:
    Data:
        Version: 3 (0x2)
        Serial Number:
            2b:cd:8e:76:ab:60:d4:bd:ab:bb:10:92:c3:00:e7:42:21:18:0e:3a
        Signature Algorithm: sha256WithRSAEncryption
        Issuer: CN=Root
        Validity
            Not Before: Jan  1 12:00:00 2015 GMT
            Not After : Jan  1 12:00:00 2018 GMT
        Subject: CN=Intermediate
        Subject Public Key Info:
            Public Key Algorithm: rsaEncryption
                RSA Public-Key: (2048 bit)
                Modulus:
                    00:e3:d0:27:bf:09:20:d9:b7:33:f4:81:16:0f:cb:
                    3b:48:7a:22:c0:13:61:5c:d8:aa:7c:7e:bf:e1:c5:
                    bc:72:ad:d0:6a:5d:c4:58:9a:3c:ac:84:20:d8:69:
                    a2:c3:94:0d:9b:33:60:04:c5:64:76:56:52:e7:7f:
                    ee:f4:66:33:89:2a:59:4d:62:5c:1d:ee:bd:3e:d3:
                    a0:35:fd:58:b0:db:9f:ea:69:18:75:94:f2:b9:1e:
                    65:32:28:54:b5:72:1c:fa:47:da:32:8d:8a:45:5b:
                    48:0e:ab:1a:f7:9f:b4:47:b1:c2:1b:bf:22:37:8d:
                    e0:84:10:ec:91:5d:9f:31:29:be:94:5a:77:d1:de:
                    52:df:48:59:77:02:c9:93:59:90:73:79:cf:c6:d1:
                    b6:7f:01:1a:2b:2d:cc:b8:fd:ba:72:b8:52:5c:75:
                    15:7e:33:bd:dc:c7:e6:fb:ca:a2:b4:ab:ca:cc:db:
                    a0:23:f4:ea:7d:76:91:b3:ea:63:2a:df:b1:96:36:
                    ed:c2:9e:91:9f:db:45:b3:34:75:d9:41:4d:4f:1f:
                    c0:ef:02:6b:35:4c:19:a7:ec:f1:38:a9:67:85:6b:
                    06:26:22:89:9b:37:05:d1:d2:f9:45:0b:60:d5:7e:
                    5d:c2:98:a3:9d:96:57:be:4d:f0:9c:f0:71:b2:3b:
                    a4:1d
                Exponent: 65537 (0x10001)
        X509v3 extensions:
            Authority Information Access: 
                CA Issuers - URI:http://url-for-aia/Root.cer

            X509v3 CRL Distribution Points: 

                Full Name:
                  URI:http://url-for-crl/Root.crl

            X509v3 Key Usage: critical
                Certificate Sign, CRL Sign
            X509v3 Basic Constraints: critical
                CA:TRUE
    Signature Algorithm: sha256WithRSAEncryption
         6f:1c:63:2a:1f:62:a2:35:1e:18:8f:bb:06:06:81:fa:09:d5:
         3c:27:21:70:f0:6e:0b:a4:28:d4:2c:68:cf:97:ca:98:43:a2:
         be:44:c0:00:f5:59:73:66:83:6f:68:6b:b6:38:76:51:2b:b5:
         77:98:6f:41:25:1d:42:62:60:c4:bd:09:d1:8d:e5:84:7b:17:
         58:f4:12:c3:ac:ca:2e:ff:95:5d:5f:b6:08:1c:a0:45:a3:00:
         ce:bf:8c:20:48:d6:08:3c:14:8c:b4:19:76:fc:b3:40:85:f1:
         91:e9:df:ce:1a:63:21:50:89:c5:37:60:ba:84:11:58:d6:5a:
         72:fe:58:89:91:92:5e:b0:d7:3a:cc:27:f3:35:93:26:19:10:
         ae:cb:50:fb:10:d4:c3:57:18:80:c8:aa:b8:c5:6e:33:a5:bb:
         90:d5:89:16:fe:ed:63:d1:b1:c6:62:37:b7:78:c7:51:5c:82:
         d3:85:28:34:e6:46:d9:8e:31:07:f5:cf:b9:ec:ef:db:0f:5e:
         ec:1c:6e:81:fe:a7:18:c6:29:6b:d5:bf:c0:ff:ea:d3:71:94:
         5c:9e:33:e9:a1:82:38:c2:0e:5f:90:fd:eb:cf:ef:c1:6a:0a:
         21:5b:ca:f3:a1:1b:0e:6e:32:7c:0f:17:b8:11:52:d8:3b:2a:
         7e:59:a8:08
-----BEGIN CERTIFICATE-----
MIIDQDCCAiigAwIBAgIUK82Odqtg1L2ruxCSwwDnQiEYDjowDQYJKoZIhvcNAQEL
BQAwDzENMAsGA1UEAwwEUm9vdDAeFw0xNTAxMDExMjAwMDBaFw0xODAxMDExMjAw
MDBaMBcxFTATBgNVBAMMDEludGVybWVkaWF0ZTCCASIwDQYJKoZIhvcNAQEBBQAD
ggEPADCCAQoCggEBAOPQJ78JINm3M/SBFg/LO0h6IsATYVzYqnx+v+HFvHKt0Gpd
xFiaPKyEINhposOUDZszYATFZHZWUud/7vRmM4kqWU1iXB3uvT7ToDX9WLDbn+pp
GHWU8rkeZTIoVLVyHPpH2jKNikVbSA6rGveftEexwhu/IjeN4IQQ7JFdnzEpvpRa
d9HeUt9IWXcCyZNZkHN5z8bRtn8BGistzLj9unK4Ulx1FX4zvdzH5vvKorSryszb
oCP06n12kbPqYyrfsZY27cKekZ/bRbM0ddlBTU8fwO8CazVMGafs8TipZ4VrBiYi
iZs3BdHS+UULYNV+XcKYo52WV75N8JzwcbI7pB0CAwEAAaOBizCBiDA3BggrBgEF
BQcBAQQrMCkwJwYIKwYBBQUHMAKGG2h0dHA6Ly91cmwtZm9yLWFpYS9Sb290LmNl
cjAsBgNVHR8EJTAjMCGgH6AdhhtodHRwOi8vdXJsLWZvci1jcmwvUm9vdC5jcmww
DgYDVR0PAQH/BAQDAgEGMA8GA1UdEwEB/wQFMAMBAf8wDQYJKoZIhvcNAQELBQAD
ggEBAG8cYyofYqI1HhiPuwYGgfoJ1TwnIXDwbgukKNQsaM+XyphDor5EwAD1WXNm
g29oa7Y4dlErtXeYb0ElHUJiYMS9CdGN5YR7F1j0EsOsyi7/lV1ftggcoEWjAM6/
jCBI1gg8FIy0GXb8s0CF8ZHp384aYyFQicU3YLqEEVjWWnL+WImRkl6w1zrMJ/M1
kyYZEK7LUPsQ1MNXGIDIqrjFbjOlu5DViRb+7WPRscZiN7d4x1FcgtOFKDTmRtmO
MQf1z7ns79sPXuwcboH+pxjGKWvVv8D/6tNxlFyeM+mhgjjCDl+Q/evP78FqCiFb
yvOhGw5uMnwPF7gRUtg7Kn5ZqAg=
-----END CERTIFICATE-----
