[Created by: ./generate-certs.py]

Intermediate with different subjectKeyIdentifier and notBefore A

Certificate:
    Data:
        Version: 3 (0x2)
        Serial Number:
            2b:cd:8e:76:ab:60:d4:bd:ab:bb:10:92:c3:00:e7:42:21:18:0e:3d
        Signature Algorithm: sha256WithRSAEncryption
        Issuer: CN=Root
        Validity
            Not Before: Jan  1 12:00:00 2015 GMT
            Not After : Jan  1 12:00:00 2018 GMT
        Subject: CN=Intermediate
        Subject Public Key Info:
            Public Key Algorithm: rsaEncryption
                RSA Public-Key: (2048 bit)
                Modulus:
                    00:e6:0c:06:e3:3d:b8:99:af:6c:31:37:eb:ff:4b:
                    5b:ba:44:3d:bc:4b:33:fe:a6:db:2e:d0:c6:24:73:
                    e6:ad:1d:92:8b:f3:65:f9:c7:87:a2:58:6a:b1:73:
                    ce:60:67:7f:f6:d5:09:4e:26:07:7c:84:72:19:00:
                    22:90:21:1b:ae:89:1e:ed:ef:07:17:b1:1c:09:cb:
                    32:d5:32:86:6c:cd:93:5e:23:50:3e:c9:69:22:48:
                    4a:bf:a0:7b:59:f8:94:72:82:93:45:3f:89:19:49:
                    d3:5e:45:de:fc:3f:d1:1a:3a:f2:2f:46:b1:dd:4b:
                    e2:43:fd:f5:62:57:d7:94:37:87:7d:96:a0:de:eb:
                    5d:b4:7b:fd:63:60:47:d2:e7:12:3d:f9:a6:3b:cc:
                    8a:ae:3f:8a:5c:f3:6a:52:9f:e0:ee:bd:38:00:34:
                    a4:17:f6:2f:07:49:58:5e:26:f3:31:42:2f:60:68:
                    2f:94:07:e9:61:12:e8:43:f9:66:df:a8:d6:9d:fc:
                    cc:25:0d:6a:ec:ff:a6:39:cf:40:93:39:ca:91:cd:
                    88:d2:1d:48:e1:33:08:8d:35:18:76:87:aa:71:0a:
                    35:f4:d2:d8:fd:f7:87:3f:32:68:15:bf:30:8a:c6:
                    52:83:ac:75:cd:3a:4c:0d:b9:b3:57:68:70:c0:72:
                    f0:8d
                Exponent: 65537 (0x10001)
        X509v3 extensions:
            X509v3 Subject Key Identifier: 
                7B:CC:78:52:6F:4B:49:86:29:2C:3E:20:93:A4:7E:2E:B8:44:16:A9
            X509v3 Authority Key Identifier: 
                keyid:EE:72:D7:3C:89:7F:07:DD:6B:92:25:09:8C:AC:48:9F:03:BA:09:0A

            Authority Information Access: 
                CA Issuers - URI:http://url-for-aia/Root.cer

            X509v3 CRL Distribution Points: 

                Full Name:
                  URI:http://url-for-crl/Root.crl

            X509v3 Key Usage: critical
                Certificate Sign, CRL Sign
            X509v3 Basic Constraints: critical
                CA:TRUE
    Signature Algorithm: sha256WithRSAEncryption
         ea:88:21:5a:39:57:39:b1:cb:d8:69:c9:20:9b:a1:cd:82:f2:
         16:40:e3:06:c4:db:83:2a:0e:67:e9:60:12:ee:39:c6:3b:54:
         17:9a:90:a8:50:2b:96:85:3d:4e:d8:a7:e5:01:fa:d2:40:2f:
         20:36:18:a9:c4:31:73:9a:e9:65:58:4a:d2:4f:64:a6:1d:87:
         51:f1:ed:21:4e:fe:70:26:e8:0c:5b:2c:c8:71:9b:8b:4a:67:
         47:54:a7:02:5e:25:67:7a:75:57:ad:72:a4:03:f1:22:99:96:
         ae:f7:ca:fe:58:45:92:4b:8f:64:09:87:e4:d5:77:af:bc:cd:
         04:51:9d:4e:c7:d5:47:93:bf:e2:09:38:26:60:25:25:58:4b:
         4d:d7:31:a6:9c:7c:41:58:4b:7c:1c:d7:b2:8b:17:a0:3d:81:
         d5:b3:4c:5c:da:71:80:4a:48:29:be:5a:67:67:86:24:20:4c:
         d5:da:fc:e0:77:2a:72:88:79:d0:76:c1:c7:26:49:09:9c:54:
         4f:29:eb:19:08:1b:cd:82:4e:51:85:3c:fe:5b:0a:94:f8:39:
         d7:51:ea:41:00:ff:e5:c0:2b:32:6f:d7:0c:7b:48:16:c6:95:
         e2:43:c0:82:20:75:77:40:b9:a1:b7:b8:ef:5b:b9:d2:c1:61:
         c1:88:61:9f
-----BEGIN CERTIFICATE-----
MIIDgDCCAmigAwIBAgIUK82Odqtg1L2ruxCSwwDnQiEYDj0wDQYJKoZIhvcNAQEL
BQAwDzENMAsGA1UEAwwEUm9vdDAeFw0xNTAxMDExMjAwMDBaFw0xODAxMDExMjAw
MDBaMBcxFTATBgNVBAMMDEludGVybWVkaWF0ZTCCASIwDQYJKoZIhvcNAQEBBQAD
ggEPADCCAQoCggEBAOYMBuM9uJmvbDE36/9LW7pEPbxLM/6m2y7QxiRz5q0dkovz
ZfnHh6JYarFzzmBnf/bVCU4mB3yEchkAIpAhG66JHu3vBxexHAnLMtUyhmzNk14j
UD7JaSJISr+ge1n4lHKCk0U/iRlJ015F3vw/0Ro68i9Gsd1L4kP99WJX15Q3h32W
oN7rXbR7/WNgR9LnEj35pjvMiq4/ilzzalKf4O69OAA0pBf2LwdJWF4m8zFCL2Bo
L5QH6WES6EP5Zt+o1p38zCUNauz/pjnPQJM5ypHNiNIdSOEzCI01GHaHqnEKNfTS
2P33hz8yaBW/MIrGUoOsdc06TA25s1docMBy8I0CAwEAAaOByzCByDAdBgNVHQ4E
FgQUe8x4Um9LSYYpLD4gk6R+LrhEFqkwHwYDVR0jBBgwFoAU7nLXPIl/B91rkiUJ
jKxInwO6CQowNwYIKwYBBQUHAQEEKzApMCcGCCsGAQUFBzAChhtodHRwOi8vdXJs
LWZvci1haWEvUm9vdC5jZXIwLAYDVR0fBCUwIzAhoB+gHYYbaHR0cDovL3VybC1m
b3ItY3JsL1Jvb3QuY3JsMA4GA1UdDwEB/wQEAwIBBjAPBgNVHRMBAf8EBTADAQH/
MA0GCSqGSIb3DQEBCwUAA4IBAQDqiCFaOVc5scvYackgm6HNgvIWQOMGxNuDKg5n
6WAS7jnGO1QXmpCoUCuWhT1O2KflAfrSQC8gNhipxDFzmullWErST2SmHYdR8e0h
Tv5wJugMWyzIcZuLSmdHVKcCXiVnenVXrXKkA/EimZau98r+WEWSS49kCYfk1Xev
vM0EUZ1Ox9VHk7/iCTgmYCUlWEtN1zGmnHxBWEt8HNeyixegPYHVs0xc2nGASkgp
vlpnZ4YkIEzV2vzgdypyiHnQdsHHJkkJnFRPKesZCBvNgk5RhTz+WwqU+DnXUepB
AP/lwCsyb9cMe0gWxpXiQ8CCIHV3QLmht7jvW7nSwWHBiGGf
-----END CERTIFICATE-----
