[Created by: ./generate-certs.py]

Intermediate with different subjectKeyIdentifier and notBefore B

Certificate:
    Data:
        Version: 3 (0x2)
        Serial Number:
            2b:cd:8e:76:ab:60:d4:bd:ab:bb:10:92:c3:00:e7:42:21:18:0e:3e
        Signature Algorithm: sha256WithRSAEncryption
        Issuer: CN=Root
        Validity
            Not Before: Jan  2 12:00:00 2015 GMT
            Not After : Jan  1 12:00:00 2018 GMT
        Subject: CN=Intermediate
        Subject Public Key Info:
            Public Key Algorithm: rsaEncryption
                RSA Public-Key: (2048 bit)
                Modulus:
                    00:e6:0c:06:e3:3d:b8:99:af:6c:31:37:eb:ff:4b:
                    5b:ba:44:3d:bc:4b:33:fe:a6:db:2e:d0:c6:24:73:
                    e6:ad:1d:92:8b:f3:65:f9:c7:87:a2:58:6a:b1:73:
                    ce:60:67:7f:f6:d5:09:4e:26:07:7c:84:72:19:00:
                    22:90:21:1b:ae:89:1e:ed:ef:07:17:b1:1c:09:cb:
                    32:d5:32:86:6c:cd:93:5e:23:50:3e:c9:69:22:48:
                    4a:bf:a0:7b:59:f8:94:72:82:93:45:3f:89:19:49:
                    d3:5e:45:de:fc:3f:d1:1a:3a:f2:2f:46:b1:dd:4b:
                    e2:43:fd:f5:62:57:d7:94:37:87:7d:96:a0:de:eb:
                    5d:b4:7b:fd:63:60:47:d2:e7:12:3d:f9:a6:3b:cc:
                    8a:ae:3f:8a:5c:f3:6a:52:9f:e0:ee:bd:38:00:34:
                    a4:17:f6:2f:07:49:58:5e:26:f3:31:42:2f:60:68:
                    2f:94:07:e9:61:12:e8:43:f9:66:df:a8:d6:9d:fc:
                    cc:25:0d:6a:ec:ff:a6:39:cf:40:93:39:ca:91:cd:
                    88:d2:1d:48:e1:33:08:8d:35:18:76:87:aa:71:0a:
                    35:f4:d2:d8:fd:f7:87:3f:32:68:15:bf:30:8a:c6:
                    52:83:ac:75:cd:3a:4c:0d:b9:b3:57:68:70:c0:72:
                    f0:8d
                Exponent: 65537 (0x10001)
        X509v3 extensions:
            X509v3 Subject Key Identifier: 
                7B:CC:78:52:6F:4B:49:86:29:2C:3E:20:93:A4:7E:2E:B8:44:16:A9
            X509v3 Authority Key Identifier: 
                keyid:EE:72:D7:3C:89:7F:07:DD:6B:92:25:09:8C:AC:48:9F:03:BA:09:0A

            Authority Information Access: 
                CA Issuers - URI:http://url-for-aia/Root.cer

            X509v3 CRL Distribution Points: 

                Full Name:
                  URI:http://url-for-crl/Root.crl

            X509v3 Key Usage: critical
                Certificate Sign, CRL Sign
            X509v3 Basic Constraints: critical
                CA:TRUE
    Signature Algorithm: sha256WithRSAEncryption
         57:c5:70:66:8e:87:9c:d5:2e:b3:b3:24:a4:d0:0d:91:46:70:
         2d:52:10:7d:3c:53:62:3a:9c:be:96:91:a4:bc:d2:19:90:7c:
         14:3e:6e:96:34:2f:80:60:51:86:24:c8:d0:29:1c:1d:e4:11:
         67:98:c6:7a:8a:77:4a:c6:bd:30:30:fc:ac:64:9c:8e:cf:34:
         78:a2:52:8d:fc:7f:f9:9a:75:96:20:d4:d9:8d:ac:4f:78:76:
         5f:5d:44:a7:3d:83:f8:47:42:c0:dd:ee:5c:5f:d9:6e:c3:b8:
         2a:97:b8:a0:cf:f6:c0:91:ee:77:44:d8:78:a9:4a:7e:6d:ef:
         06:75:c5:af:bf:85:e9:ef:2b:c7:92:33:76:8c:ad:d3:a6:d9:
         c9:1a:5d:ed:48:d0:83:d6:6a:72:8c:93:88:d7:29:1e:5f:c6:
         1c:11:ef:45:6d:6b:be:17:b4:de:50:c6:79:7a:b2:cf:1d:74:
         98:35:d2:3f:f1:a3:ed:67:f3:84:4a:dc:69:75:dc:b9:12:f5:
         de:2f:3d:f6:2d:ec:c7:4c:a2:52:d3:93:af:be:90:6a:f6:d5:
         b9:8c:d8:80:42:ff:83:6b:4d:a3:2d:65:e7:45:90:1f:27:ff:
         0a:f1:e9:c1:2d:ce:f9:e5:03:31:32:21:07:94:20:49:c3:28:
         7e:3f:6c:d7
-----BEGIN CERTIFICATE-----
MIIDgDCCAmigAwIBAgIUK82Odqtg1L2ruxCSwwDnQiEYDj4wDQYJKoZIhvcNAQEL
BQAwDzENMAsGA1UEAwwEUm9vdDAeFw0xNTAxMDIxMjAwMDBaFw0xODAxMDExMjAw
MDBaMBcxFTATBgNVBAMMDEludGVybWVkaWF0ZTCCASIwDQYJKoZIhvcNAQEBBQAD
ggEPADCCAQoCggEBAOYMBuM9uJmvbDE36/9LW7pEPbxLM/6m2y7QxiRz5q0dkovz
ZfnHh6JYarFzzmBnf/bVCU4mB3yEchkAIpAhG66JHu3vBxexHAnLMtUyhmzNk14j
UD7JaSJISr+ge1n4lHKCk0U/iRlJ015F3vw/0Ro68i9Gsd1L4kP99WJX15Q3h32W
oN7rXbR7/WNgR9LnEj35pjvMiq4/ilzzalKf4O69OAA0pBf2LwdJWF4m8zFCL2Bo
L5QH6WES6EP5Zt+o1p38zCUNauz/pjnPQJM5ypHNiNIdSOEzCI01GHaHqnEKNfTS
2P33hz8yaBW/MIrGUoOsdc06TA25s1docMBy8I0CAwEAAaOByzCByDAdBgNVHQ4E
FgQUe8x4Um9LSYYpLD4gk6R+LrhEFqkwHwYDVR0jBBgwFoAU7nLXPIl/B91rkiUJ
jKxInwO6CQowNwYIKwYBBQUHAQEEKzApMCcGCCsGAQUFBzAChhtodHRwOi8vdXJs
LWZvci1haWEvUm9vdC5jZXIwLAYDVR0fBCUwIzAhoB+gHYYbaHR0cDovL3VybC1m
b3ItY3JsL1Jvb3QuY3JsMA4GA1UdDwEB/wQEAwIBBjAPBgNVHRMBAf8EBTADAQH/
MA0GCSqGSIb3DQEBCwUAA4IBAQBXxXBmjoec1S6zsySk0A2RRnAtUhB9PFNiOpy+
lpGkvNIZkHwUPm6WNC+AYFGGJMjQKRwd5BFnmMZ6indKxr0wMPysZJyOzzR4olKN
/H/5mnWWINTZjaxPeHZfXUSnPYP4R0LA3e5cX9luw7gql7igz/bAke53RNh4qUp+
be8GdcWvv4Xp7yvHkjN2jK3TptnJGl3tSNCD1mpyjJOI1ykeX8YcEe9FbWu+F7Te
UMZ5erLPHXSYNdI/8aPtZ/OEStxpddy5EvXeLz32LezHTKJS05OvvpBq9tW5jNiA
Qv+Da02jLWXnRZAfJ/8K8enBLc755QMxMiEHlCBJwyh+P2zX
-----END CERTIFICATE-----
