[Created by: ./generate-certs.py]

The root

Certificate:
    Data:
        Version: 3 (0x2)
        Serial Number:
            2b:cd:8e:76:ab:60:d4:bd:ab:bb:10:92:c3:00:e7:42:21:18:0e:35
        Signature Algorithm: sha256WithRSAEncryption
        Issuer: CN=Root
        Validity
            Not Before: Jan  1 12:00:00 2015 GMT
            Not After : Jan  1 12:00:00 2018 GMT
        Subject: CN=Root
        Subject Public Key Info:
            Public Key Algorithm: rsaEncryption
                RSA Public-Key: (2048 bit)
                Modulus:
                    00:ea:b2:0e:76:57:a0:e7:a2:57:cd:01:4a:10:cc:
                    75:ce:3c:96:e6:97:37:93:01:d8:be:b0:2f:3a:b5:
                    86:30:a9:c0:98:b3:81:33:2c:05:3c:f3:b7:43:c0:
                    14:b6:ac:15:22:3f:28:74:40:76:d9:0e:a8:58:42:
                    e7:02:51:e8:f1:1a:f1:bd:7d:14:2e:99:e4:ce:c1:
                    8c:60:d2:4f:74:c3:e7:12:fe:8f:e0:ae:be:a5:9a:
                    3b:e1:fc:72:ab:dd:fd:3a:2a:28:c6:9b:f4:fa:8e:
                    9a:49:51:9a:68:40:ae:8d:81:8f:d0:17:f3:d8:a1:
                    7c:c0:c7:42:ae:aa:02:73:eb:09:5f:84:00:4b:48:
                    a3:95:ea:8e:d0:cf:1f:da:c6:6d:43:df:c1:5d:0b:
                    4a:88:4b:18:e5:27:92:02:35:94:e7:e5:6a:fb:79:
                    3b:66:4e:16:eb:77:ce:bd:10:a9:37:f7:1f:dc:84:
                    34:ed:cd:cc:c8:0e:c1:d4:95:3d:90:b8:29:02:f1:
                    a7:ff:80:50:44:cc:69:0f:61:b9:da:72:0d:eb:e2:
                    f7:21:30:5e:ea:25:af:6f:09:19:0a:e3:fa:57:23:
                    c2:b2:21:1b:a1:dc:2a:7c:31:8c:1a:cf:e3:73:62:
                    d0:37:08:ff:23:7f:b3:41:be:29:d1:b5:53:32:28:
                    cb:f3
                Exponent: 65537 (0x10001)
        X509v3 extensions:
            X509v3 Subject Key Identifier: 
                EE:72:D7:3C:89:7F:07:DD:6B:92:25:09:8C:AC:48:9F:03:BA:09:0A
            X509v3 Authority Key Identifier: 
                keyid:EE:72:D7:3C:89:7F:07:DD:6B:92:25:09:8C:AC:48:9F:03:BA:09:0A

            Authority Information Access: 
                CA Issuers - URI:http://url-for-aia/Root.cer

            X509v3 CRL Distribution Points: 

                Full Name:
                  URI:http://url-for-crl/Root.crl

            X509v3 Key Usage: critical
                Certificate Sign, CRL Sign
            X509v3 Basic Constraints: critical
                CA:TRUE
    Signature Algorithm: sha256WithRSAEncryption
         a0:fb:e5:58:57:68:8c:59:99:c9:60:4b:92:0b:a4:b8:47:23:
         ef:58:4e:13:ef:a1:75:af:25:53:d5:69:73:1d:46:71:21:8a:
         b7:4d:20:bf:d2:29:17:0c:fd:4a:87:73:94:78:4f:5e:45:ed:
         14:5a:28:e8:fe:8b:1c:c8:e9:a4:24:69:cf:4f:6a:7c:60:6e:
         fd:e7:e2:df:42:ab:68:23:d6:fe:72:55:84:1d:5b:c0:c7:26:
         a1:48:50:5f:f2:fb:81:30:68:90:3a:9b:62:77:63:3d:e0:fe:
         5e:2d:df:5a:8f:8b:52:49:6c:7a:b3:8c:31:29:e5:3f:f0:dc:
         64:7f:6a:43:ca:4e:7a:d1:b7:e0:43:cf:b6:d1:c8:c3:6f:f1:
         d0:03:26:99:cb:3c:6f:cc:d9:06:f8:c5:dd:c1:18:39:f2:5e:
         a2:9c:62:63:66:20:1c:f3:dd:ab:5b:10:10:48:48:6e:cf:61:
         bd:98:89:a5:58:d6:b9:99:35:83:4d:5a:69:06:c5:eb:92:4a:
         50:80:26:dd:cb:6f:68:60:8a:48:97:5b:7e:fe:22:81:42:93:
         2a:dc:b8:bb:95:aa:42:8b:fa:97:5d:1a:a5:4b:ce:2f:3a:72:
         d2:8d:02:3e:de:a8:86:08:c0:cc:66:cc:1a:90:5b:fe:b8:2e:
         f1:dd:a3:52
-----BEGIN CERTIFICATE-----
MIIDeDCCAmCgAwIBAgIUK82Odqtg1L2ruxCSwwDnQiEYDjUwDQYJKoZIhvcNAQEL
BQAwDzENMAsGA1UEAwwEUm9vdDAeFw0xNTAxMDExMjAwMDBaFw0xODAxMDExMjAw
MDBaMA8xDTALBgNVBAMMBFJvb3QwggEiMA0GCSqGSIb3DQEBAQUAA4IBDwAwggEK
AoIBAQDqsg52V6DnolfNAUoQzHXOPJbmlzeTAdi+sC86tYYwqcCYs4EzLAU887dD
wBS2rBUiPyh0QHbZDqhYQucCUejxGvG9fRQumeTOwYxg0k90w+cS/o/grr6lmjvh
/HKr3f06KijGm/T6jppJUZpoQK6NgY/QF/PYoXzAx0KuqgJz6wlfhABLSKOV6o7Q
zx/axm1D38FdC0qISxjlJ5ICNZTn5Wr7eTtmThbrd869EKk39x/chDTtzczIDsHU
lT2QuCkC8af/gFBEzGkPYbnacg3r4vchMF7qJa9vCRkK4/pXI8KyIRuh3Cp8MYwa
z+NzYtA3CP8jf7NBvinRtVMyKMvzAgMBAAGjgcswgcgwHQYDVR0OBBYEFO5y1zyJ
fwfda5IlCYysSJ8DugkKMB8GA1UdIwQYMBaAFO5y1zyJfwfda5IlCYysSJ8DugkK
MDcGCCsGAQUFBwEBBCswKTAnBggrBgEFBQcwAoYbaHR0cDovL3VybC1mb3ItYWlh
L1Jvb3QuY2VyMCwGA1UdHwQlMCMwIaAfoB2GG2h0dHA6Ly91cmwtZm9yLWNybC9S
b290LmNybDAOBgNVHQ8BAf8EBAMCAQYwDwYDVR0TAQH/BAUwAwEB/zANBgkqhkiG
9w0BAQsFAAOCAQEAoPvlWFdojFmZyWBLkgukuEcj71hOE++hda8lU9Vpcx1GcSGK
t00gv9IpFwz9SodzlHhPXkXtFFoo6P6LHMjppCRpz09qfGBu/efi30KraCPW/nJV
hB1bwMcmoUhQX/L7gTBokDqbYndjPeD+Xi3fWo+LUklserOMMSnlP/DcZH9qQ8pO
etG34EPPttHIw2/x0AMmmcs8b8zZBvjF3cEYOfJeopxiY2YgHPPdq1sQEEhIbs9h
vZiJpVjWuZk1g01aaQbF65JKUIAm3ctvaGCKSJdbfv4igUKTKty4u5WqQov6l10a
pUvOLzpy0o0CPt6ohgjAzGbMGpBb/rgu8d2jUg==
-----END CERTIFICATE-----
