[Created by: ./generate-certs.py]

The target

Certificate:
    Data:
        Version: 3 (0x2)
        Serial Number:
            57:02:f3:04:d9:5e:03:7a:c8:2e:74:12:5f:24:4a:0c:d0:f5:81:65
        Signature Algorithm: sha256WithRSAEncryption
        Issuer: CN=Intermediate
        Validity
            Not Before: Jan  1 12:00:00 2015 GMT
            Not After : Jan  1 12:00:00 2018 GMT
        Subject: CN=Target
        Subject Public Key Info:
            Public Key Algorithm: rsaEncryption
                RSA Public-Key: (2048 bit)
                Modulus:
                    00:a5:f9:0c:81:48:93:2b:15:7b:1c:c1:4a:7a:10:
                    93:2c:14:f3:ee:66:2e:aa:c9:3b:a1:04:05:72:09:
                    3f:ac:73:16:a4:eb:1a:e3:0e:9f:79:a5:17:0c:ed:
                    1e:25:0a:0a:10:e8:b5:15:cd:91:ca:bc:a8:77:27:
                    b4:ab:bb:d7:ad:46:c7:ef:29:c4:e8:13:be:a1:f1:
                    08:21:51:28:bf:c4:b2:6a:ed:5b:d2:77:7d:b9:cf:
                    39:9b:7a:d3:77:72:29:91:b3:c9:e0:90:00:94:ef:
                    7b:99:fd:ab:20:64:25:78:26:a1:fd:a0:58:cd:ab:
                    43:49:52:4e:a7:31:34:a2:fa:df:3f:bf:bc:a6:1e:
                    6b:1a:64:ac:1d:d0:66:78:dc:8e:8d:cd:42:62:31:
                    9e:0b:9f:f9:fa:2b:cb:cb:19:90:7c:19:18:70:ff:
                    22:1f:ae:82:ea:09:ca:e2:17:26:fd:35:b0:00:7b:
                    02:35:1a:72:d5:f6:ad:42:bd:69:3b:ed:ba:c6:99:
                    3a:b2:eb:bd:81:39:53:85:f2:70:19:44:83:d0:7f:
                    7a:61:38:c1:fe:af:9b:c0:c1:e2:d5:36:71:a2:3e:
                    89:3d:1d:20:3f:4c:3d:4e:f5:4f:e8:b8:02:84:de:
                    26:e9:3e:7b:e3:56:e5:bd:75:f4:bf:ef:65:84:81:
                    c3:bf
                Exponent: 65537 (0x10001)
        X509v3 extensions:
            X509v3 Subject Key Identifier: 
                69:49:B6:6A:E7:D6:FA:2B:5E:FC:24:DE:73:E4:A7:F0:4E:11:FF:FD
            X509v3 Authority Key Identifier: 
                keyid:E8:21:00:1D:6B:A1:AB:30:01:FB:6E:A8:8D:FA:B9:69:48:C2:89:1F

            Authority Information Access: 
                CA Issuers - URI:http://url-for-aia/Intermediate.cer

            X509v3 CRL Distribution Points: 

                Full Name:
                  URI:http://url-for-crl/Intermediate.crl

            X509v3 Key Usage: critical
                Digital Signature, Key Encipherment
            X509v3 Extended Key Usage: 
                TLS Web Server Authentication, TLS Web Client Authentication
    Signature Algorithm: sha256WithRSAEncryption
         36:fd:c3:90:5e:a6:e7:a8:ac:8a:6f:60:41:56:d0:ac:2b:de:
         b0:f4:1f:74:ac:fd:19:78:06:44:7f:8b:1f:00:72:64:6d:c2:
         42:ff:1b:43:64:2a:94:4c:ea:b2:9f:70:67:f2:b2:9c:cd:8d:
         86:dc:87:2b:75:a6:90:54:5f:3d:00:49:61:65:91:ab:77:86:
         06:2d:d0:ed:89:0d:87:5c:bc:ee:b3:29:c4:fa:65:27:e8:68:
         ce:50:e4:7c:6e:15:a1:96:f5:d1:3f:93:0d:e0:09:1b:8c:85:
         9a:66:b7:4b:45:27:cf:2f:bb:e4:ef:aa:07:9d:2a:62:62:06:
         e7:59:0b:9b:5f:a7:1d:95:94:b4:0a:06:db:0f:37:e6:0b:87:
         7e:31:96:00:b8:fc:c0:8d:fb:24:a7:67:ec:74:47:94:6d:22:
         ba:f6:0c:9a:63:ed:99:ea:92:fd:51:ac:7c:5e:f5:6d:25:fd:
         69:b9:f5:d7:ad:a7:5f:9a:18:aa:25:7b:11:ee:3d:7c:c9:91:
         48:36:9d:ff:b0:45:b4:be:80:6e:3b:99:aa:b8:bb:12:ea:ab:
         90:f3:68:3d:41:c7:fd:f7:13:94:8d:54:99:3d:0d:6c:65:dc:
         f3:ff:0b:1c:4f:f5:1e:02:3d:1e:2a:46:fe:43:7b:1c:af:c9:
         11:ea:9d:05
-----BEGIN CERTIFICATE-----
MIIDoDCCAoigAwIBAgIUVwLzBNleA3rILnQSXyRKDND1gWUwDQYJKoZIhvcNAQEL
BQAwFzEVMBMGA1UEAwwMSW50ZXJtZWRpYXRlMB4XDTE1MDEwMTEyMDAwMFoXDTE4
MDEwMTEyMDAwMFowETEPMA0GA1UEAwwGVGFyZ2V0MIIBIjANBgkqhkiG9w0BAQEF
AAOCAQ8AMIIBCgKCAQEApfkMgUiTKxV7HMFKehCTLBTz7mYuqsk7oQQFcgk/rHMW
pOsa4w6feaUXDO0eJQoKEOi1Fc2Ryryodye0q7vXrUbH7ynE6BO+ofEIIVEov8Sy
au1b0nd9uc85m3rTd3IpkbPJ4JAAlO97mf2rIGQleCah/aBYzatDSVJOpzE0ovrf
P7+8ph5rGmSsHdBmeNyOjc1CYjGeC5/5+ivLyxmQfBkYcP8iH66C6gnK4hcm/TWw
AHsCNRpy1fatQr1pO+26xpk6suu9gTlThfJwGUSD0H96YTjB/q+bwMHi1TZxoj6J
PR0gP0w9TvVP6LgChN4m6T5741blvXX0v+9lhIHDvwIDAQABo4HpMIHmMB0GA1Ud
DgQWBBRpSbZq59b6K178JN5z5KfwThH//TAfBgNVHSMEGDAWgBToIQAda6GrMAH7
bqiN+rlpSMKJHzA/BggrBgEFBQcBAQQzMDEwLwYIKwYBBQUHMAKGI2h0dHA6Ly91
cmwtZm9yLWFpYS9JbnRlcm1lZGlhdGUuY2VyMDQGA1UdHwQtMCswKaAnoCWGI2h0
dHA6Ly91cmwtZm9yLWNybC9JbnRlcm1lZGlhdGUuY3JsMA4GA1UdDwEB/wQEAwIF
oDAdBgNVHSUEFjAUBggrBgEFBQcDAQYIKwYBBQUHAwIwDQYJKoZIhvcNAQELBQAD
ggEBADb9w5BepueorIpvYEFW0Kwr3rD0H3Ss/Rl4BkR/ix8AcmRtwkL/G0NkKpRM
6rKfcGfyspzNjYbchyt1ppBUXz0ASWFlkat3hgYt0O2JDYdcvO6zKcT6ZSfoaM5Q
5HxuFaGW9dE/kw3gCRuMhZpmt0tFJ88vu+TvqgedKmJiBudZC5tfpx2VlLQKBtsP
N+YLh34xlgC4/MCN+ySnZ+x0R5RtIrr2DJpj7Znqkv1RrHxe9W0l/Wm59detp1+a
GKolexHuPXzJkUg2nf+wRbS+gG47maq4uxLqq5DzaD1Bx/33E5SNVJk9DWxl3PP/
CxxP9R4CPR4qRv5DexyvyRHqnQU=
-----END CERTIFICATE-----
