[Created by: generate-chains.py]

Simple certificate chain for a serverAuth which is comprised of a root,
intermediate, and leaf certificate.

Certificate:
    Data:
        Version: 3 (0x2)
        Serial Number:
            36:ca:7f:6d:80:1b:f8:bd:48:70:cd:9e:69:48:89:43:5e:d7:40:41
        Signature Algorithm: sha256WithRSAEncryption
        Issuer: CN=Intermediate
        Validity
            Not Before: Oct  5 12:00:00 2021 GMT
            Not After : Oct  5 12:00:00 2022 GMT
        Subject: CN=Target
        Subject Public Key Info:
            Public Key Algorithm: rsaEncryption
                RSA Public-Key: (2048 bit)
                Modulus:
                    00:ca:19:b1:9d:8f:85:f5:a4:a8:8a:0d:d3:7f:f3:
                    67:67:b1:d1:db:3d:69:8c:fa:bb:53:58:28:50:14:
                    2f:06:aa:7e:f5:c6:06:4d:7d:76:9f:ee:33:d8:c8:
                    6c:16:e8:65:df:d0:c0:9a:62:49:60:2a:d9:53:b6:
                    6d:c6:27:32:13:58:b2:c3:64:63:61:bf:6b:40:ea:
                    24:9c:a6:15:ae:2b:38:e7:70:58:12:46:92:5f:a5:
                    70:6c:ea:50:3c:7b:9b:33:50:54:93:a4:9c:41:e0:
                    40:7e:18:87:8a:52:d5:1d:66:f3:f0:f7:54:3f:55:
                    61:f5:66:1c:a6:0d:73:57:a3:78:1a:4c:99:7d:77:
                    e0:aa:c5:c5:5e:49:21:35:4e:47:3d:61:7d:43:9b:
                    e0:94:28:b7:65:4d:cf:7e:52:2c:2a:b3:93:94:8b:
                    0f:04:f6:45:20:83:97:b7:a4:dd:ef:8d:1f:c7:c5:
                    29:d4:55:9f:a3:90:38:14:46:f6:7e:13:9e:99:6d:
                    41:b0:c4:00:69:58:e6:7f:ac:a5:0a:e4:ad:c8:e3:
                    c1:a1:2a:a1:77:83:e9:f0:d1:c2:5b:48:10:33:59:
                    4e:8d:0e:d7:01:0a:3c:11:e0:bf:cf:e8:2f:47:4b:
                    f6:d6:95:4d:c0:73:a7:b5:21:a4:0a:98:dc:fa:9b:
                    0d:87
                Exponent: 65537 (0x10001)
        X509v3 extensions:
            X509v3 Subject Key Identifier: 
                4A:80:F9:C0:2F:58:C5:F9:EB:98:BA:65:70:D0:81:0A:DA:16:C3:E0
            X509v3 Authority Key Identifier: 
                keyid:F3:3D:8D:B6:D6:56:60:17:BC:E3:79:08:BF:E8:D0:61:78:8E:0C:00

            Authority Information Access: 
                CA Issuers - URI:http://url-for-aia/Intermediate.cer

            X509v3 CRL Distribution Points: 

                Full Name:
                  URI:http://url-for-crl/Intermediate.crl

            X509v3 Key Usage: critical
                Digital Signature, Key Encipherment
            X509v3 Extended Key Usage: 
                TLS Web Server Authentication, TLS Web Client Authentication
    Signature Algorithm: sha256WithRSAEncryption
         62:69:d8:82:46:7f:68:d7:c5:22:3c:f1:5f:7f:35:b5:1e:f1:
         5e:5c:d1:60:6e:12:2d:e9:5d:ce:d6:06:c9:71:c7:ad:0f:f9:
         ed:b2:9c:3a:8c:6f:23:9d:23:7b:22:27:d3:9a:ae:2d:67:93:
         3f:ab:c1:29:94:c1:bd:ae:d9:1a:72:b9:6f:a9:b6:49:36:fb:
         ec:33:82:f4:55:81:b1:a7:0c:bc:92:5e:ca:0b:b7:c8:a7:1d:
         22:13:4a:e6:f9:03:dc:e9:fa:f2:b4:b8:93:ea:de:c6:8e:4b:
         3c:9e:2a:07:9a:03:08:b2:44:fd:40:cb:33:85:d4:75:e0:76:
         8d:b1:ae:ce:6e:63:9d:47:7f:be:dd:c7:33:87:ec:cc:c7:c4:
         86:46:07:fe:9f:c9:b4:6e:d3:0f:44:88:88:23:65:72:fa:ad:
         f8:31:99:e3:3c:93:72:fe:86:5f:33:4a:70:e8:b2:f1:d7:25:
         be:65:0c:c3:53:f1:81:7d:fa:8d:62:db:67:6c:76:42:5d:3f:
         28:44:5b:47:7f:b4:75:84:a0:48:af:fc:e0:c2:62:61:cd:b4:
         8e:41:e1:af:35:49:15:51:60:cc:0b:f9:38:65:f4:7c:db:b3:
         6d:0d:9d:11:c3:70:fe:79:1d:dd:1e:f9:ac:46:54:b1:75:00:
         60:47:67:c9
-----BEGIN CERTIFICATE-----
MIIDoDCCAoigAwIBAgIUNsp/bYAb+L1IcM2eaUiJQ17XQEEwDQYJKoZIhvcNAQEL
BQAwFzEVMBMGA1UEAwwMSW50ZXJtZWRpYXRlMB4XDTIxMTAwNTEyMDAwMFoXDTIy
MTAwNTEyMDAwMFowETEPMA0GA1UEAwwGVGFyZ2V0MIIBIjANBgkqhkiG9w0BAQEF
AAOCAQ8AMIIBCgKCAQEAyhmxnY+F9aSoig3Tf/NnZ7HR2z1pjPq7U1goUBQvBqp+
9cYGTX12n+4z2MhsFuhl39DAmmJJYCrZU7ZtxicyE1iyw2RjYb9rQOoknKYVris4
53BYEkaSX6VwbOpQPHubM1BUk6ScQeBAfhiHilLVHWbz8PdUP1Vh9WYcpg1zV6N4
GkyZfXfgqsXFXkkhNU5HPWF9Q5vglCi3ZU3PflIsKrOTlIsPBPZFIIOXt6Td740f
x8Up1FWfo5A4FEb2fhOemW1BsMQAaVjmf6ylCuStyOPBoSqhd4Pp8NHCW0gQM1lO
jQ7XAQo8EeC/z+gvR0v21pVNwHOntSGkCpjc+psNhwIDAQABo4HpMIHmMB0GA1Ud
DgQWBBRKgPnAL1jF+euYumVw0IEK2hbD4DAfBgNVHSMEGDAWgBTzPY221lZgF7zj
eQi/6NBheI4MADA/BggrBgEFBQcBAQQzMDEwLwYIKwYBBQUHMAKGI2h0dHA6Ly91
cmwtZm9yLWFpYS9JbnRlcm1lZGlhdGUuY2VyMDQGA1UdHwQtMCswKaAnoCWGI2h0
dHA6Ly91cmwtZm9yLWNybC9JbnRlcm1lZGlhdGUuY3JsMA4GA1UdDwEB/wQEAwIF
oDAdBgNVHSUEFjAUBggrBgEFBQcDAQYIKwYBBQUHAwIwDQYJKoZIhvcNAQELBQAD
ggEBAGJp2IJGf2jXxSI88V9/NbUe8V5c0WBuEi3pXc7WBslxx60P+e2ynDqMbyOd
I3siJ9Oari1nkz+rwSmUwb2u2RpyuW+ptkk2++wzgvRVgbGnDLySXsoLt8inHSIT
Sub5A9zp+vK0uJPq3saOSzyeKgeaAwiyRP1AyzOF1HXgdo2xrs5uY51Hf77dxzOH
7MzHxIZGB/6fybRu0w9EiIgjZXL6rfgxmeM8k3L+hl8zSnDosvHXJb5lDMNT8YF9
+o1i22dsdkJdPyhEW0d/tHWEoEiv/ODCYmHNtI5B4a81SRVRYMwL+Thl9Hzbs20N
nRHDcP55Hd0e+axGVLF1AGBHZ8k=
-----END CERTIFICATE-----

Certificate:
    Data:
        Version: 3 (0x2)
        Serial Number:
            31:35:7f:72:00:4e:18:f5:81:03:33:ce:54:3c:48:8b:a6:7d:a0:8c
        Signature Algorithm: sha256WithRSAEncryption
        Issuer: CN=Root
        Validity
            Not Before: Oct  5 12:00:00 2021 GMT
            Not After : Oct  5 12:00:00 2022 GMT
        Subject: CN=Intermediate
        Subject Public Key Info:
            Public Key Algorithm: rsaEncryption
                RSA Public-Key: (2048 bit)
                Modulus:
                    00:bc:ef:ca:8a:95:3f:19:1b:19:eb:4e:fe:3d:fe:
                    02:be:20:db:89:a3:06:b7:99:d8:af:c7:9a:a9:4d:
                    b8:82:5d:6a:06:66:fd:4d:b0:c9:f6:07:27:96:bd:
                    31:1c:77:f4:04:ba:fe:d4:25:46:02:9a:8a:88:bd:
                    e7:c3:dc:61:0a:78:26:db:b6:9e:ff:43:cd:ed:ea:
                    c0:67:f0:3d:e3:f5:d9:5a:ec:db:ac:ef:06:2d:6e:
                    37:fc:8d:c5:d3:a0:b0:d4:60:4e:0d:f8:ab:fa:68:
                    1a:36:2b:ce:bb:91:14:3b:0e:16:1c:0b:c9:c4:46:
                    e7:c2:1a:86:cc:ad:07:68:eb:cb:6e:93:37:cc:1a:
                    cc:59:de:9a:12:ec:3c:0f:eb:bf:8c:f7:76:0f:7e:
                    f5:89:f9:85:0c:21:95:af:ac:3c:a2:9d:9e:ba:d3:
                    06:aa:50:2d:25:c0:02:a8:a5:97:cf:7a:b3:ad:78:
                    c5:30:95:be:ce:0a:26:bd:4f:e2:5f:51:c6:f0:b9:
                    a1:bd:24:32:07:0d:b7:1b:2c:b2:ec:c8:c8:ef:77:
                    8f:ab:6f:e9:e2:66:d9:30:02:49:96:11:16:ed:e2:
                    e8:85:cd:48:d6:a9:b1:20:02:95:ff:1b:79:9d:6b:
                    21:6b:bd:d3:27:94:19:67:b1:9f:aa:06:d6:8c:69:
                    11:33
                Exponent: 65537 (0x10001)
        X509v3 extensions:
            X509v3 Subject Key Identifier: 
                F3:3D:8D:B6:D6:56:60:17:BC:E3:79:08:BF:E8:D0:61:78:8E:0C:00
            X509v3 Authority Key Identifier: 
                keyid:EE:92:48:AE:86:AC:68:E4:9E:C1:3D:D4:4C:34:B2:DF:8A:5D:FF:8C

            Authority Information Access: 
                CA Issuers - URI:http://url-for-aia/Root.cer

            X509v3 CRL Distribution Points: 

                Full Name:
                  URI:http://url-for-crl/Root.crl

            X509v3 Key Usage: critical
                Certificate Sign, CRL Sign
            X509v3 Basic Constraints: critical
                CA:TRUE
    Signature Algorithm: sha256WithRSAEncryption
         15:dd:ed:bc:ea:4b:0d:08:d5:11:d4:d1:41:ad:be:08:2b:60:
         df:b9:95:09:1e:ad:44:35:53:80:64:c6:df:72:65:3e:6b:a7:
         6f:0b:cd:f2:e5:02:d5:14:af:a3:ff:9d:af:9c:5d:fd:97:7f:
         2a:c9:e0:9b:5a:1c:80:30:28:d2:13:25:ef:4b:37:6d:86:ce:
         17:46:51:e2:3f:5d:42:7f:09:8e:cc:82:a2:05:36:e5:ba:f3:
         c6:a6:8a:0b:cf:91:f7:84:8d:07:a2:0e:c2:2a:31:03:08:a3:
         25:f9:4e:ed:66:0e:84:31:b8:83:82:a2:dd:f2:70:13:83:ea:
         3e:20:6e:be:12:d6:1b:9b:22:f3:d2:a9:91:84:a6:40:fb:8c:
         51:58:04:7c:de:33:0d:02:0c:74:85:dc:9b:fa:b5:1f:59:3f:
         bb:7f:ab:4a:be:ef:64:e7:95:98:31:86:f1:41:08:83:26:15:
         90:24:34:e1:68:90:b3:50:ab:d3:a3:0d:42:61:10:45:f2:77:
         5b:8f:26:9d:ee:12:84:96:17:a6:94:3b:29:3a:de:b0:59:8c:
         4f:0a:a8:00:5a:cf:3c:82:04:49:e1:24:89:ce:33:75:fd:65:
         14:2b:ce:10:59:14:ac:e0:3b:56:8f:32:fe:85:1d:8a:49:5e:
         51:a9:07:40
-----BEGIN CERTIFICATE-----
MIIDgDCCAmigAwIBAgIUMTV/cgBOGPWBAzPOVDxIi6Z9oIwwDQYJKoZIhvcNAQEL
BQAwDzENMAsGA1UEAwwEUm9vdDAeFw0yMTEwMDUxMjAwMDBaFw0yMjEwMDUxMjAw
MDBaMBcxFTATBgNVBAMMDEludGVybWVkaWF0ZTCCASIwDQYJKoZIhvcNAQEBBQAD
ggEPADCCAQoCggEBALzvyoqVPxkbGetO/j3+Ar4g24mjBreZ2K/HmqlNuIJdagZm
/U2wyfYHJ5a9MRx39AS6/tQlRgKaioi958PcYQp4Jtu2nv9Dze3qwGfwPeP12Vrs
26zvBi1uN/yNxdOgsNRgTg34q/poGjYrzruRFDsOFhwLycRG58IahsytB2jry26T
N8wazFnemhLsPA/rv4z3dg9+9Yn5hQwhla+sPKKdnrrTBqpQLSXAAqill896s614
xTCVvs4KJr1P4l9RxvC5ob0kMgcNtxsssuzIyO93j6tv6eJm2TACSZYRFu3i6IXN
SNapsSAClf8beZ1rIWu90yeUGWexn6oG1oxpETMCAwEAAaOByzCByDAdBgNVHQ4E
FgQU8z2NttZWYBe843kIv+jQYXiODAAwHwYDVR0jBBgwFoAU7pJIroasaOSewT3U
TDSy34pd/4wwNwYIKwYBBQUHAQEEKzApMCcGCCsGAQUFBzAChhtodHRwOi8vdXJs
LWZvci1haWEvUm9vdC5jZXIwLAYDVR0fBCUwIzAhoB+gHYYbaHR0cDovL3VybC1m
b3ItY3JsL1Jvb3QuY3JsMA4GA1UdDwEB/wQEAwIBBjAPBgNVHRMBAf8EBTADAQH/
MA0GCSqGSIb3DQEBCwUAA4IBAQAV3e286ksNCNUR1NFBrb4IK2DfuZUJHq1ENVOA
ZMbfcmU+a6dvC83y5QLVFK+j/52vnF39l38qyeCbWhyAMCjSEyXvSzdths4XRlHi
P11CfwmOzIKiBTbluvPGpooLz5H3hI0Hog7CKjEDCKMl+U7tZg6EMbiDgqLd8nAT
g+o+IG6+EtYbmyLz0qmRhKZA+4xRWAR83jMNAgx0hdyb+rUfWT+7f6tKvu9k55WY
MYbxQQiDJhWQJDThaJCzUKvTow1CYRBF8ndbjyad7hKElhemlDspOt6wWYxPCqgA
Ws88ggRJ4SSJzjN1/WUUK84QWRSs4DtWjzL+hR2KSV5RqQdA
-----END CERTIFICATE-----

Certificate:
    Data:
        Version: 3 (0x2)
        Serial Number:
            31:35:7f:72:00:4e:18:f5:81:03:33:ce:54:3c:48:8b:a6:7d:a0:8b
        Signature Algorithm: sha256WithRSAEncryption
        Issuer: CN=Root
        Validity
            Not Before: Oct  5 12:00:00 2021 GMT
            Not After : Oct  5 12:00:00 2022 GMT
        Subject: CN=Root
        Subject Public Key Info:
            Public Key Algorithm: rsaEncryption
                RSA Public-Key: (2048 bit)
                Modulus:
                    00:9b:9e:4a:8e:cd:47:0e:a6:2f:17:ad:24:c7:d6:
                    c7:40:5f:ba:90:b2:2c:4b:57:5c:3e:f2:de:80:f6:
                    fd:f2:28:12:9c:92:63:4a:11:c6:bb:74:d7:ad:ec:
                    3e:9d:1a:7f:0a:30:98:df:1f:a2:98:11:a6:60:6f:
                    69:5f:dd:28:35:06:39:b6:e2:91:df:59:be:07:c5:
                    52:57:84:a4:ae:cb:5b:9b:b3:aa:56:77:fd:00:1a:
                    55:96:00:27:12:6e:d1:f6:35:ff:a3:fa:b6:0b:0e:
                    2a:46:75:6b:58:27:a6:a1:43:ba:37:74:1d:28:1a:
                    3d:bf:e6:f2:10:bf:2c:ce:24:67:03:4e:4e:fc:aa:
                    51:22:25:f8:e5:75:5c:c3:ad:da:03:56:b4:1b:8a:
                    6f:26:e5:c8:ef:43:a9:d7:81:8b:0f:b1:8b:d6:cd:
                    11:e9:4c:0c:cb:a2:ab:fa:34:2a:13:aa:a4:db:83:
                    9c:d8:a6:45:ec:f5:fa:d0:cd:b0:6b:7a:1b:0e:ca:
                    d3:31:4b:cb:53:f1:5c:82:8c:96:f7:ca:b6:40:53:
                    d0:24:67:27:1a:8d:1a:f7:65:c9:a1:fc:f9:f4:85:
                    3c:51:3c:fc:56:87:18:bf:a3:d5:dd:de:8e:e6:3b:
                    67:29:e9:fd:4b:4f:ba:1a:ff:d7:ec:f1:da:bd:56:
                    48:2b
                Exponent: 65537 (0x10001)
        X509v3 extensions:
            X509v3 Subject Key Identifier: 
                EE:92:48:AE:86:AC:68:E4:9E:C1:3D:D4:4C:34:B2:DF:8A:5D:FF:8C
            X509v3 Authority Key Identifier: 
                keyid:EE:92:48:AE:86:AC:68:E4:9E:C1:3D:D4:4C:34:B2:DF:8A:5D:FF:8C

            Authority Information Access: 
                CA Issuers - URI:http://url-for-aia/Root.cer

            X509v3 CRL Distribution Points: 

                Full Name:
                  URI:http://url-for-crl/Root.crl

            X509v3 Key Usage: critical
                Certificate Sign, CRL Sign
            X509v3 Basic Constraints: critical
                CA:TRUE
    Signature Algorithm: sha256WithRSAEncryption
         03:b0:3d:4b:d5:ca:61:57:cb:18:5b:a2:1d:01:91:ea:e5:0c:
         00:01:c8:4f:64:76:ff:40:96:4a:80:bf:d2:98:a4:4c:13:53:
         fc:dc:fd:f5:7c:f0:ba:11:00:43:69:34:97:ea:42:3b:ef:91:
         5e:48:64:c8:47:f0:4b:ca:dd:08:d6:f3:f6:7c:fc:e1:01:41:
         8b:5f:0c:f0:f9:b6:83:66:7d:1d:ec:71:90:a5:85:68:83:b0:
         84:f8:d1:ee:28:52:64:9e:f2:89:72:3a:fd:b2:3a:6c:79:6b:
         c8:a4:6e:40:dd:55:68:c0:d9:d4:28:1f:6e:cc:8e:1c:d3:98:
         dc:c5:04:fa:23:25:fe:1b:e5:0c:40:34:38:57:5e:f2:2a:72:
         ab:af:74:08:9e:f8:16:da:a7:fe:2f:68:4b:f4:66:d7:b9:19:
         1a:71:1e:81:f6:31:29:d9:4c:a2:91:cc:cd:23:ae:9d:6e:ee:
         6f:87:65:34:82:76:b0:ab:d5:4f:1a:80:1e:f3:f4:16:41:4f:
         1d:ce:8d:b2:18:ca:d0:a7:9c:d1:ea:23:ed:7e:49:78:4e:80:
         05:e8:e7:6c:9a:45:e4:09:4a:03:cd:79:05:f9:32:3e:fb:4a:
         94:ca:8f:2f:53:7f:b6:fe:7a:33:10:cf:54:ed:f8:a7:78:a9:
         c8:20:e1:a1
-----BEGIN CERTIFICATE-----
MIIDeDCCAmCgAwIBAgIUMTV/cgBOGPWBAzPOVDxIi6Z9oIswDQYJKoZIhvcNAQEL
BQAwDzENMAsGA1UEAwwEUm9vdDAeFw0yMTEwMDUxMjAwMDBaFw0yMjEwMDUxMjAw
MDBaMA8xDTALBgNVBAMMBFJvb3QwggEiMA0GCSqGSIb3DQEBAQUAA4IBDwAwggEK
AoIBAQCbnkqOzUcOpi8XrSTH1sdAX7qQsixLV1w+8t6A9v3yKBKckmNKEca7dNet
7D6dGn8KMJjfH6KYEaZgb2lf3Sg1Bjm24pHfWb4HxVJXhKSuy1ubs6pWd/0AGlWW
ACcSbtH2Nf+j+rYLDipGdWtYJ6ahQ7o3dB0oGj2/5vIQvyzOJGcDTk78qlEiJfjl
dVzDrdoDVrQbim8m5cjvQ6nXgYsPsYvWzRHpTAzLoqv6NCoTqqTbg5zYpkXs9frQ
zbBrehsOytMxS8tT8VyCjJb3yrZAU9AkZycajRr3Zcmh/Pn0hTxRPPxWhxi/o9Xd
3o7mO2cp6f1LT7oa/9fs8dq9VkgrAgMBAAGjgcswgcgwHQYDVR0OBBYEFO6SSK6G
rGjknsE91Ew0st+KXf+MMB8GA1UdIwQYMBaAFO6SSK6GrGjknsE91Ew0st+KXf+M
MDcGCCsGAQUFBwEBBCswKTAnBggrBgEFBQcwAoYbaHR0cDovL3VybC1mb3ItYWlh
L1Jvb3QuY2VyMCwGA1UdHwQlMCMwIaAfoB2GG2h0dHA6Ly91cmwtZm9yLWNybC9S
b290LmNybDAOBgNVHQ8BAf8EBAMCAQYwDwYDVR0TAQH/BAUwAwEB/zANBgkqhkiG
9w0BAQsFAAOCAQEAA7A9S9XKYVfLGFuiHQGR6uUMAAHIT2R2/0CWSoC/0pikTBNT
/Nz99XzwuhEAQ2k0l+pCO++RXkhkyEfwS8rdCNbz9nz84QFBi18M8Pm2g2Z9Hexx
kKWFaIOwhPjR7ihSZJ7yiXI6/bI6bHlryKRuQN1VaMDZ1CgfbsyOHNOY3MUE+iMl
/hvlDEA0OFde8ipyq690CJ74Ftqn/i9oS/Rm17kZGnEegfYxKdlMopHMzSOunW7u
b4dlNIJ2sKvVTxqAHvP0FkFPHc6NshjK0Kec0eoj7X5JeE6ABejnbJpF5AlKA815
BfkyPvtKlMqPL1N/tv56MxDPVO34p3ipyCDhoQ==
-----END CERTIFICATE-----
