[Created by: generate-chains.py]

Certificate chain where the target certificate has an incorrect signature.

Certificate:
    Data:
        Version: 3 (0x2)
        Serial Number:
            64:12:b2:41:aa:b4:4c:d7:9a:e2:15:7a:bc:3b:e5:1c:2e:2f:6f:9a
        Signature Algorithm: sha256WithRSAEncryption
        Issuer: CN=Intermediate
        Validity
            Not Before: Oct  5 12:00:00 2021 GMT
            Not After : Oct  5 12:00:00 2022 GMT
        Subject: CN=Target
        Subject Public Key Info:
            Public Key Algorithm: rsaEncryption
                RSA Public-Key: (2048 bit)
                Modulus:
                    00:a3:10:52:35:1d:ac:4e:a5:23:41:40:b1:1d:66:
                    30:25:bc:dd:a5:62:66:d1:74:db:5f:bd:5d:96:07:
                    08:94:c4:61:a4:e9:07:31:f9:e8:6a:52:f5:8a:3d:
                    1c:6d:00:c8:47:51:30:99:42:8b:27:11:48:e9:c6:
                    de:db:ff:7f:ee:6e:29:cf:48:77:1e:63:11:bc:2a:
                    81:fb:3a:5d:4e:d2:b8:0c:ce:68:6b:61:f2:bf:64:
                    da:aa:3f:06:74:47:77:72:08:d2:a3:c3:35:cf:e5:
                    dd:13:f7:d3:45:21:f5:9c:cf:7e:50:56:53:11:c8:
                    eb:90:f2:a2:eb:8f:9d:c1:07:c4:b8:4b:38:04:3d:
                    7f:be:73:36:3e:5f:c4:7e:37:a7:0c:88:8b:a8:63:
                    79:74:b4:2c:c6:7c:52:61:e1:03:d3:ff:4f:c5:50:
                    63:19:83:eb:f3:89:a3:91:e5:90:ab:80:43:18:3e:
                    c8:77:ac:69:97:cf:2f:5b:be:a9:59:89:99:3a:5d:
                    87:c4:4f:97:4a:60:18:ea:ea:a5:b7:1e:61:57:98:
                    50:55:91:13:34:0d:03:65:a4:f4:bb:63:e6:bb:3e:
                    9f:03:84:f7:e6:63:d0:f3:82:5b:0c:96:b1:32:f2:
                    2f:2a:55:5b:24:a6:b6:33:62:6e:ed:0b:f2:77:f8:
                    f8:f3
                Exponent: 65537 (0x10001)
        X509v3 extensions:
            X509v3 Subject Key Identifier: 
                19:59:39:C0:2B:03:0A:9B:BF:AA:A8:AB:B2:FB:AF:95:88:63:CA:6E
            X509v3 Authority Key Identifier: 
                keyid:CC:47:D8:FF:8B:67:33:FB:F5:CD:D0:A7:B6:12:A0:19:27:27:D1:57

            Authority Information Access: 
                CA Issuers - URI:http://url-for-aia/Intermediate.cer

            X509v3 CRL Distribution Points: 

                Full Name:
                  URI:http://url-for-crl/Intermediate.crl

            X509v3 Key Usage: critical
                Digital Signature, Key Encipherment
            X509v3 Extended Key Usage: 
                TLS Web Server Authentication, TLS Web Client Authentication
    Signature Algorithm: sha256WithRSAEncryption
         56:c1:31:dc:59:0e:4f:9d:6f:91:77:f7:6b:55:54:a5:34:37:
         8a:e8:37:88:d6:84:d6:d9:b2:80:61:3c:8a:68:01:bb:ef:f4:
         ee:23:51:ca:58:ea:a4:62:cd:93:78:a9:e2:79:49:aa:d4:02:
         da:55:55:98:8e:15:70:08:b1:0d:01:2e:3a:0e:27:10:76:03:
         41:2d:3f:1a:7e:45:ba:8e:fc:9a:d0:19:be:85:72:db:cc:ff:
         7a:87:39:07:87:c0:89:b5:bd:d2:43:db:86:6b:0e:9a:08:1d:
         d3:ea:c6:ca:68:5b:88:b2:89:1c:55:72:a5:8f:c0:0e:19:db:
         fd:65:42:5c:6b:fe:a7:83:6a:63:96:a8:27:dd:16:61:31:03:
         74:9d:bc:f5:90:20:90:31:8e:94:9e:a9:99:15:55:47:a1:20:
         49:82:a4:38:a9:6b:eb:73:56:1d:e7:80:f0:46:76:4a:f9:8a:
         9b:d0:dd:ab:9c:ab:eb:63:f8:e1:90:a2:b5:85:54:8d:90:e0:
         56:a3:0c:46:bd:7a:c5:f6:11:96:7e:da:d1:f0:38:c6:91:f3:
         ed:8d:2a:a0:4a:6b:60:76:a4:7f:57:0f:ff:14:26:d5:3d:6f:
         4a:96:c0:14:c3:2d:62:e0:17:65:b2:4f:42:08:dc:9e:52:e6:
         27:66:45:ce
-----BEGIN CERTIFICATE-----
MIIDoDCCAoigAwIBAgIUZBKyQaq0TNea4hV6vDvlHC4vb5owDQYJKoZIhvcNAQEL
BQAwFzEVMBMGA1UEAwwMSW50ZXJtZWRpYXRlMB4XDTIxMTAwNTEyMDAwMFoXDTIy
MTAwNTEyMDAwMFowETEPMA0GA1UEAwwGVGFyZ2V0MIIBIjANBgkqhkiG9w0BAQEF
AAOCAQ8AMIIBCgKCAQEAoxBSNR2sTqUjQUCxHWYwJbzdpWJm0XTbX71dlgcIlMRh
pOkHMfnoalL1ij0cbQDIR1EwmUKLJxFI6cbe2/9/7m4pz0h3HmMRvCqB+zpdTtK4
DM5oa2Hyv2Taqj8GdEd3cgjSo8M1z+XdE/fTRSH1nM9+UFZTEcjrkPKi64+dwQfE
uEs4BD1/vnM2Pl/EfjenDIiLqGN5dLQsxnxSYeED0/9PxVBjGYPr84mjkeWQq4BD
GD7Id6xpl88vW76pWYmZOl2HxE+XSmAY6uqltx5hV5hQVZETNA0DZaT0u2Pmuz6f
A4T35mPQ84JbDJaxMvIvKlVbJKa2M2Ju7Qvyd/j48wIDAQABo4HpMIHmMB0GA1Ud
DgQWBBQZWTnAKwMKm7+qqKuy+6+ViGPKbjAfBgNVHSMEGDAWgBTMR9j/i2cz+/XN
0Ke2EqAZJyfRVzA/BggrBgEFBQcBAQQzMDEwLwYIKwYBBQUHMAKGI2h0dHA6Ly91
cmwtZm9yLWFpYS9JbnRlcm1lZGlhdGUuY2VyMDQGA1UdHwQtMCswKaAnoCWGI2h0
dHA6Ly91cmwtZm9yLWNybC9JbnRlcm1lZGlhdGUuY3JsMA4GA1UdDwEB/wQEAwIF
oDAdBgNVHSUEFjAUBggrBgEFBQcDAQYIKwYBBQUHAwIwDQYJKoZIhvcNAQELBQAD
ggEBAFbBMdxZDk+db5F392tVVKU0N4roN4jWhNbZsoBhPIpoAbvv9O4jUcpY6qRi
zZN4qeJ5SarUAtpVVZiOFXAIsQ0BLjoOJxB2A0EtPxp+RbqO/JrQGb6FctvM/3qH
OQeHwIm1vdJD24ZrDpoIHdPqxspoW4iyiRxVcqWPwA4Z2/1lQlxr/qeDamOWqCfd
FmExA3SdvPWQIJAxjpSeqZkVVUehIEmCpDipa+tzVh3ngPBGdkr5ipvQ3aucq+tj
+OGQorWFVI2Q4FajDEa9esX2EZZ+2tHwOMaR8+2NKqBKa2B2pH9XD/8UJtU9b0qW
wBTDLWLgF2WyT0II3J5S5idmRc4=
-----END CERTIFICATE-----

Certificate:
    Data:
        Version: 3 (0x2)
        Serial Number:
            6a:9f:ff:3a:b6:b8:fe:7d:22:0c:6a:3b:9d:e9:cc:59:3d:d5:60:ed
        Signature Algorithm: sha256WithRSAEncryption
        Issuer: CN=Root
        Validity
            Not Before: Oct  5 12:00:00 2021 GMT
            Not After : Oct  5 12:00:00 2022 GMT
        Subject: CN=Intermediate
        Subject Public Key Info:
            Public Key Algorithm: rsaEncryption
                RSA Public-Key: (2048 bit)
                Modulus:
                    00:e8:a7:ff:7c:21:83:d4:bd:ed:f4:09:73:79:69:
                    0c:ec:79:18:79:54:2e:a6:87:f3:7b:65:e8:73:6a:
                    a5:af:fd:00:6b:c9:ed:86:50:18:f0:4c:d9:12:17:
                    3a:23:ae:7a:49:3d:71:7c:6e:da:4f:7b:ed:55:73:
                    e8:71:5c:72:13:84:8f:83:aa:30:4f:0a:bc:38:51:
                    75:47:67:c3:6c:5e:e8:af:96:07:4a:0c:f7:5d:c1:
                    82:ea:02:e2:c3:da:57:68:2c:03:1a:a0:d9:51:05:
                    ef:ec:67:cc:fd:c4:09:b4:f7:2f:c7:5a:df:84:7f:
                    15:60:32:9d:17:4e:4b:3c:15:48:a7:42:a1:f5:d4:
                    04:82:bb:cc:18:3a:ab:07:d1:66:82:9b:0d:b0:ef:
                    d8:47:18:71:78:e6:07:47:97:29:24:0c:7a:12:ab:
                    2f:4b:14:ec:35:7a:d2:a3:2a:16:0c:0b:91:5a:e2:
                    f2:64:93:85:1d:e2:27:7e:7e:cd:eb:5f:83:d7:07:
                    0c:06:b8:8f:44:91:0c:37:d8:86:65:23:1a:fe:8f:
                    69:3e:bb:20:bb:ef:1b:18:1b:fd:2f:bf:5b:d3:be:
                    da:2d:9f:9a:57:6b:4b:73:3f:34:04:99:5d:a1:73:
                    b5:08:d1:bb:9a:5c:88:a0:f8:65:1c:e7:7f:f3:95:
                    d0:fd
                Exponent: 65537 (0x10001)
        X509v3 extensions:
            X509v3 Subject Key Identifier: 
                1E:51:BA:4C:14:B3:B7:2B:E2:AE:4C:1C:35:21:7C:DB:92:18:AB:53
            X509v3 Authority Key Identifier: 
                keyid:5B:22:4E:B0:32:77:9B:92:26:9B:3B:E9:76:31:CE:FB:43:87:A3:2A

            Authority Information Access: 
                CA Issuers - URI:http://url-for-aia/Root.cer

            X509v3 CRL Distribution Points: 

                Full Name:
                  URI:http://url-for-crl/Root.crl

            X509v3 Key Usage: critical
                Certificate Sign, CRL Sign
            X509v3 Basic Constraints: critical
                CA:TRUE
    Signature Algorithm: sha256WithRSAEncryption
         d4:1e:bf:d9:98:97:43:3d:5d:ca:eb:f0:2c:40:8b:91:46:f1:
         4c:f9:61:ac:c0:72:b1:07:5e:67:23:46:ba:ea:ce:1b:e6:f7:
         69:7a:14:30:0b:8c:4e:b0:ff:c3:11:ab:e6:fb:1e:a2:f9:f4:
         f0:41:0d:ce:0f:4c:82:5b:b6:fd:a6:1b:8a:8f:da:8e:0f:a9:
         19:0a:26:59:c4:42:84:a2:b9:60:ed:6a:11:6e:f0:05:18:67:
         bb:18:e6:de:00:dd:a0:a7:42:29:c6:a1:b4:aa:81:56:e4:12:
         39:1f:8a:0e:5b:2c:f7:07:7d:ad:db:be:86:89:f2:24:ee:b3:
         34:f6:75:fe:5c:4e:fa:1f:6a:fc:2e:93:ca:0e:6e:33:a6:ba:
         7e:a8:3f:66:2c:cb:16:b0:93:80:91:50:7e:7b:76:af:e4:7c:
         fc:35:a2:f5:b1:4a:07:7b:b4:8e:da:76:c0:43:91:83:81:47:
         10:2f:bb:2b:63:a0:63:e6:a4:24:01:75:69:ad:0c:62:ad:24:
         3f:01:b4:a9:b4:77:85:b9:4a:79:4f:35:9b:e8:1e:7e:e5:0e:
         22:ce:f6:76:ad:58:f9:53:7f:d9:d5:0c:43:5a:c4:7b:1e:a4:
         7d:af:03:9c:a0:56:92:6f:b4:bc:f7:71:08:1a:6a:07:a1:f2:
         79:8d:a4:4a
-----BEGIN CERTIFICATE-----
MIIDgDCCAmigAwIBAgIUap//Ora4/n0iDGo7nenMWT3VYO0wDQYJKoZIhvcNAQEL
BQAwDzENMAsGA1UEAwwEUm9vdDAeFw0yMTEwMDUxMjAwMDBaFw0yMjEwMDUxMjAw
MDBaMBcxFTATBgNVBAMMDEludGVybWVkaWF0ZTCCASIwDQYJKoZIhvcNAQEBBQAD
ggEPADCCAQoCggEBAOin/3whg9S97fQJc3lpDOx5GHlULqaH83tl6HNqpa/9AGvJ
7YZQGPBM2RIXOiOuekk9cXxu2k977VVz6HFcchOEj4OqME8KvDhRdUdnw2xe6K+W
B0oM913BguoC4sPaV2gsAxqg2VEF7+xnzP3ECbT3L8da34R/FWAynRdOSzwVSKdC
ofXUBIK7zBg6qwfRZoKbDbDv2EcYcXjmB0eXKSQMehKrL0sU7DV60qMqFgwLkVri
8mSThR3iJ35+zetfg9cHDAa4j0SRDDfYhmUjGv6PaT67ILvvGxgb/S+/W9O+2i2f
mldrS3M/NASZXaFztQjRu5pciKD4ZRznf/OV0P0CAwEAAaOByzCByDAdBgNVHQ4E
FgQUHlG6TBSztyvirkwcNSF825IYq1MwHwYDVR0jBBgwFoAUWyJOsDJ3m5Immzvp
djHO+0OHoyowNwYIKwYBBQUHAQEEKzApMCcGCCsGAQUFBzAChhtodHRwOi8vdXJs
LWZvci1haWEvUm9vdC5jZXIwLAYDVR0fBCUwIzAhoB+gHYYbaHR0cDovL3VybC1m
b3ItY3JsL1Jvb3QuY3JsMA4GA1UdDwEB/wQEAwIBBjAPBgNVHRMBAf8EBTADAQH/
MA0GCSqGSIb3DQEBCwUAA4IBAQDUHr/ZmJdDPV3K6/AsQIuRRvFM+WGswHKxB15n
I0a66s4b5vdpehQwC4xOsP/DEavm+x6i+fTwQQ3OD0yCW7b9phuKj9qOD6kZCiZZ
xEKEorlg7WoRbvAFGGe7GObeAN2gp0IpxqG0qoFW5BI5H4oOWyz3B32t276GifIk
7rM09nX+XE76H2r8LpPKDm4zprp+qD9mLMsWsJOAkVB+e3av5Hz8NaL1sUoHe7SO
2nbAQ5GDgUcQL7srY6Bj5qQkAXVprQxirSQ/AbSptHeFuUp5TzWb6B5+5Q4izvZ2
rVj5U3/Z1QxDWsR7HqR9rwOcoFaSb7S893EIGmoHofJ5jaRK
-----END CERTIFICATE-----

Certificate:
    Data:
        Version: 3 (0x2)
        Serial Number:
            6a:9f:ff:3a:b6:b8:fe:7d:22:0c:6a:3b:9d:e9:cc:59:3d:d5:60:eb
        Signature Algorithm: sha256WithRSAEncryption
        Issuer: CN=Root
        Validity
            Not Before: Oct  5 12:00:00 2021 GMT
            Not After : Oct  5 12:00:00 2022 GMT
        Subject: CN=Root
        Subject Public Key Info:
            Public Key Algorithm: rsaEncryption
                RSA Public-Key: (2048 bit)
                Modulus:
                    00:df:f9:b3:49:5f:c8:1f:a6:a5:bc:9e:5d:08:17:
                    7e:a5:87:b6:d2:53:a6:c2:ce:73:29:cb:f4:35:07:
                    26:c5:b0:ef:87:ca:a0:64:db:7f:e4:2c:05:da:81:
                    8e:98:b8:80:d2:f1:c3:e5:d6:6c:1a:ac:90:8f:f0:
                    4d:43:fd:09:f4:eb:17:fa:c4:cb:da:2a:56:7e:b6:
                    d2:ce:6d:5f:d5:ec:01:67:af:02:3a:d6:18:a2:61:
                    43:f6:ff:45:10:c4:8e:c1:15:1b:a0:88:77:45:82:
                    39:10:f8:d7:2c:26:13:df:20:62:0f:9a:5d:69:d1:
                    ae:4e:c2:28:30:0c:dd:d5:6e:8e:23:d0:45:f3:4f:
                    2c:9a:f6:f7:d4:fd:b8:6e:28:32:74:57:94:5d:f8:
                    3f:51:ef:11:21:09:27:3c:05:46:86:78:63:f6:c5:
                    0d:7c:28:e5:b7:1a:66:f4:91:59:f2:91:16:a2:7b:
                    0a:34:e7:30:78:72:73:10:dc:b7:60:cd:d3:ea:8b:
                    09:0e:7c:9c:01:f9:f5:d8:ce:35:86:8f:60:e4:00:
                    38:98:81:ac:36:1a:25:7e:c6:59:bd:79:53:5b:83:
                    f0:72:50:78:a2:3f:53:45:fc:64:56:40:ed:64:5d:
                    7d:df:62:4f:a0:01:25:19:59:9f:84:e6:c7:21:04:
                    b8:2f
                Exponent: 65537 (0x10001)
        X509v3 extensions:
            X509v3 Subject Key Identifier: 
                5B:22:4E:B0:32:77:9B:92:26:9B:3B:E9:76:31:CE:FB:43:87:A3:2A
            X509v3 Authority Key Identifier: 
                keyid:5B:22:4E:B0:32:77:9B:92:26:9B:3B:E9:76:31:CE:FB:43:87:A3:2A

            Authority Information Access: 
                CA Issuers - URI:http://url-for-aia/Root.cer

            X509v3 CRL Distribution Points: 

                Full Name:
                  URI:http://url-for-crl/Root.crl

            X509v3 Key Usage: critical
                Certificate Sign, CRL Sign
            X509v3 Basic Constraints: critical
                CA:TRUE
    Signature Algorithm: sha256WithRSAEncryption
         16:d1:9e:75:72:6b:30:1b:89:1b:ea:97:b9:28:bf:93:75:1b:
         51:3c:89:47:1e:58:59:87:1e:f8:aa:8a:d7:b9:7d:60:42:44:
         39:da:8d:84:f2:e1:97:8f:9c:db:46:cf:49:54:f0:af:fd:7a:
         38:77:9b:c1:d1:1b:21:4f:05:3c:2e:19:e4:42:76:35:f3:ef:
         38:45:a1:a5:b3:ab:e1:8b:13:32:3e:89:4c:49:f9:32:df:02:
         c1:f3:1f:d5:77:9c:c8:87:c7:73:0b:94:e1:74:65:64:8a:ca:
         69:b0:c4:81:91:be:05:a2:6d:09:e4:29:78:66:af:89:54:96:
         9c:bd:ad:bc:1e:e6:64:01:48:93:63:d5:aa:72:87:0d:65:98:
         2c:b3:b4:85:97:b5:4e:fe:b3:31:0c:e8:85:eb:c4:5f:65:c6:
         f4:00:a4:26:7b:ae:17:b7:6c:89:95:db:e5:c1:50:65:ee:f5:
         73:28:26:21:24:0b:b3:4a:e6:24:e9:c1:b9:e1:5a:6a:86:35:
         c3:44:8e:b1:30:10:79:38:fe:96:1c:07:ad:43:22:ec:58:c6:
         1f:66:93:50:52:4a:7e:a6:74:4b:c3:31:53:c0:3e:f9:a3:3a:
         ea:0c:e9:b5:c1:8d:c3:93:e9:f5:89:12:98:cd:85:63:33:12:
         b7:6e:63:cd
-----BEGIN CERTIFICATE-----
MIIDeDCCAmCgAwIBAgIUap//Ora4/n0iDGo7nenMWT3VYOswDQYJKoZIhvcNAQEL
BQAwDzENMAsGA1UEAwwEUm9vdDAeFw0yMTEwMDUxMjAwMDBaFw0yMjEwMDUxMjAw
MDBaMA8xDTALBgNVBAMMBFJvb3QwggEiMA0GCSqGSIb3DQEBAQUAA4IBDwAwggEK
AoIBAQDf+bNJX8gfpqW8nl0IF36lh7bSU6bCznMpy/Q1BybFsO+HyqBk23/kLAXa
gY6YuIDS8cPl1mwarJCP8E1D/Qn06xf6xMvaKlZ+ttLObV/V7AFnrwI61hiiYUP2
/0UQxI7BFRugiHdFgjkQ+NcsJhPfIGIPml1p0a5OwigwDN3Vbo4j0EXzTyya9vfU
/bhuKDJ0V5Rd+D9R7xEhCSc8BUaGeGP2xQ18KOW3Gmb0kVnykRaiewo05zB4cnMQ
3LdgzdPqiwkOfJwB+fXYzjWGj2DkADiYgaw2GiV+xlm9eVNbg/ByUHiiP1NF/GRW
QO1kXX3fYk+gASUZWZ+E5schBLgvAgMBAAGjgcswgcgwHQYDVR0OBBYEFFsiTrAy
d5uSJps76XYxzvtDh6MqMB8GA1UdIwQYMBaAFFsiTrAyd5uSJps76XYxzvtDh6Mq
MDcGCCsGAQUFBwEBBCswKTAnBggrBgEFBQcwAoYbaHR0cDovL3VybC1mb3ItYWlh
L1Jvb3QuY2VyMCwGA1UdHwQlMCMwIaAfoB2GG2h0dHA6Ly91cmwtZm9yLWNybC9S
b290LmNybDAOBgNVHQ8BAf8EBAMCAQYwDwYDVR0TAQH/BAUwAwEB/zANBgkqhkiG
9w0BAQsFAAOCAQEAFtGedXJrMBuJG+qXuSi/k3UbUTyJRx5YWYce+KqK17l9YEJE
OdqNhPLhl4+c20bPSVTwr/16OHebwdEbIU8FPC4Z5EJ2NfPvOEWhpbOr4YsTMj6J
TEn5Mt8CwfMf1XecyIfHcwuU4XRlZIrKabDEgZG+BaJtCeQpeGaviVSWnL2tvB7m
ZAFIk2PVqnKHDWWYLLO0hZe1Tv6zMQzohevEX2XG9ACkJnuuF7dsiZXb5cFQZe71
cygmISQLs0rmJOnBueFaaoY1w0SOsTAQeTj+lhwHrUMi7FjGH2aTUFJKfqZ0S8Mx
U8A++aM66gzptcGNw5Pp9YkSmM2FYzMSt25jzQ==
-----END CERTIFICATE-----
