[Created by: ./generate-certs.py]

Root2

Certificate:
    Data:
        Version: 3 (0x2)
        Serial Number:
            0b:47:37:3c:b9:4f:bb:12:00:66:59:ff:23:75:4d:4e:db:ec:3b:af
        Signature Algorithm: sha256WithRSAEncryption
        Issuer: CN=Root2
        Validity
            Not Before: Jan  1 12:00:00 2015 GMT
            Not After : Jan  1 12:00:00 2018 GMT
        Subject: CN=Root2
        Subject Public Key Info:
            Public Key Algorithm: rsaEncryption
                RSA Public-Key: (2048 bit)
                Modulus:
                    00:d6:30:78:b2:0d:61:bd:2e:dd:1b:11:91:56:ed:
                    13:f9:86:87:9c:2c:2f:d0:73:d1:9a:49:d5:e2:35:
                    26:27:9f:cc:c6:68:c6:c8:2b:be:27:e8:30:b3:a9:
                    12:2a:8f:b9:eb:8f:a3:9b:e3:9a:54:94:6e:29:20:
                    56:b0:bb:11:06:08:38:a6:e7:f3:75:7a:75:fd:c3:
                    56:e0:8c:ef:f1:66:5b:7f:4a:59:67:5a:67:dc:7b:
                    6b:ca:d0:53:57:fa:fd:fc:5c:38:57:7b:a1:b8:5a:
                    18:3a:36:90:3f:fc:0e:04:17:0e:70:72:b4:4d:6c:
                    ad:2b:e6:17:c8:74:66:84:a2:11:73:7f:ce:52:3b:
                    cd:fb:c7:ec:e1:29:c4:5f:4d:f8:da:aa:38:2a:7f:
                    60:15:03:5d:c8:3d:e9:dd:5f:55:5e:33:8e:c5:c1:
                    10:a4:43:7b:52:91:a4:27:99:57:7a:a9:97:28:2b:
                    a1:b9:91:c2:58:bf:70:3f:58:a7:fe:e1:6f:86:67:
                    26:99:30:ad:1c:32:af:a2:03:11:b4:93:08:2f:cf:
                    17:fc:3a:99:2f:06:45:b6:a4:31:26:aa:9d:b2:6d:
                    ad:22:70:88:d1:e7:7d:4d:ce:35:73:c5:bc:b3:eb:
                    b2:70:b9:e2:2f:2b:df:de:89:c3:e2:a4:aa:55:e5:
                    80:d9
                Exponent: 65537 (0x10001)
        X509v3 extensions:
            X509v3 Subject Key Identifier: 
                1D:72:01:C8:EE:64:3A:DC:AA:28:84:0B:52:D4:11:A4:CC:29:44:15
            X509v3 Authority Key Identifier: 
                keyid:1D:72:01:C8:EE:64:3A:DC:AA:28:84:0B:52:D4:11:A4:CC:29:44:15

            Authority Information Access: 
                CA Issuers - URI:http://url-for-aia/Root2.cer

            X509v3 CRL Distribution Points: 

                Full Name:
                  URI:http://url-for-crl/Root2.crl

            X509v3 Key Usage: critical
                Certificate Sign, CRL Sign
            X509v3 Basic Constraints: critical
                CA:TRUE
    Signature Algorithm: sha256WithRSAEncryption
         bb:6b:16:f0:c6:62:c7:c6:9a:9b:08:18:fe:2d:61:7e:65:38:
         6d:ab:53:bf:02:d1:bf:c7:1b:8b:fa:7b:71:34:da:28:88:5a:
         19:36:f3:d1:d2:49:6b:0b:73:8c:81:a1:94:f5:18:31:91:27:
         26:87:b2:62:6f:b3:6d:02:64:bb:47:6b:2d:10:2e:7b:65:08:
         9c:09:08:9b:b3:3e:22:09:90:bf:82:c6:09:ae:c1:13:4f:6e:
         05:b0:99:ca:a3:5f:48:77:63:68:f0:71:75:0c:24:f0:cc:2c:
         bd:a4:97:77:00:7b:cf:0c:da:de:6b:77:a4:03:d3:27:18:53:
         32:50:50:78:85:e0:7a:35:3a:59:88:21:da:61:37:d5:d7:cd:
         7c:8f:04:d4:89:9a:62:4d:52:97:f9:a4:98:cf:6c:3c:40:60:
         28:5f:ac:2f:c3:7b:f0:16:0a:12:79:ef:92:d1:e8:0a:04:69:
         a0:f1:1b:0b:c4:a0:82:33:a5:3b:39:7d:37:70:a1:79:f3:d8:
         f8:2d:27:2c:c8:84:34:03:52:39:e1:8e:24:2e:a4:97:64:d5:
         5d:38:20:6c:45:21:71:59:f5:3a:58:d0:08:0a:fd:68:6d:41:
         fb:dc:f0:2b:13:23:0d:42:0a:1d:fa:57:bb:9c:94:de:ef:17:
         e0:d0:97:4f
-----BEGIN CERTIFICATE-----
MIIDfDCCAmSgAwIBAgIUC0c3PLlPuxIAZln/I3VNTtvsO68wDQYJKoZIhvcNAQEL
BQAwEDEOMAwGA1UEAwwFUm9vdDIwHhcNMTUwMTAxMTIwMDAwWhcNMTgwMTAxMTIw
MDAwWjAQMQ4wDAYDVQQDDAVSb290MjCCASIwDQYJKoZIhvcNAQEBBQADggEPADCC
AQoCggEBANYweLINYb0u3RsRkVbtE/mGh5wsL9Bz0ZpJ1eI1JiefzMZoxsgrvifo
MLOpEiqPueuPo5vjmlSUbikgVrC7EQYIOKbn83V6df3DVuCM7/FmW39KWWdaZ9x7
a8rQU1f6/fxcOFd7obhaGDo2kD/8DgQXDnBytE1srSvmF8h0ZoSiEXN/zlI7zfvH
7OEpxF9N+NqqOCp/YBUDXcg96d1fVV4zjsXBEKRDe1KRpCeZV3qplygrobmRwli/
cD9Yp/7hb4ZnJpkwrRwyr6IDEbSTCC/PF/w6mS8GRbakMSaqnbJtrSJwiNHnfU3O
NXPFvLPrsnC54i8r396Jw+KkqlXlgNkCAwEAAaOBzTCByjAdBgNVHQ4EFgQUHXIB
yO5kOtyqKIQLUtQRpMwpRBUwHwYDVR0jBBgwFoAUHXIByO5kOtyqKIQLUtQRpMwp
RBUwOAYIKwYBBQUHAQEELDAqMCgGCCsGAQUFBzAChhxodHRwOi8vdXJsLWZvci1h
aWEvUm9vdDIuY2VyMC0GA1UdHwQmMCQwIqAgoB6GHGh0dHA6Ly91cmwtZm9yLWNy
bC9Sb290Mi5jcmwwDgYDVR0PAQH/BAQDAgEGMA8GA1UdEwEB/wQFMAMBAf8wDQYJ
KoZIhvcNAQELBQADggEBALtrFvDGYsfGmpsIGP4tYX5lOG2rU78C0b/HG4v6e3E0
2iiIWhk289HSSWsLc4yBoZT1GDGRJyaHsmJvs20CZLtHay0QLntlCJwJCJuzPiIJ
kL+CxgmuwRNPbgWwmcqjX0h3Y2jwcXUMJPDMLL2kl3cAe88M2t5rd6QD0ycYUzJQ
UHiF4Ho1OlmIIdphN9XXzXyPBNSJmmJNUpf5pJjPbDxAYChfrC/De/AWChJ575LR
6AoEaaDxGwvEoIIzpTs5fTdwoXnz2PgtJyzIhDQDUjnhjiQupJdk1V04IGxFIXFZ
9TpY0AgK/WhtQfvc8CsTIw1CCh36V7uclN7vF+DQl08=
-----END CERTIFICATE-----
