[Created by: ./generate-certs.py]

Root1

Certificate:
    Data:
        Version: 3 (0x2)
        Serial Number:
            1d:33:87:4d:4c:f3:d4:64:de:94:46:a2:5e:14:0b:00:c1:88:83:5b
        Signature Algorithm: sha256WithRSAEncryption
        Issuer: CN=Root1
        Validity
            Not Before: Jan  1 12:00:00 2015 GMT
            Not After : Jan  1 12:00:00 2018 GMT
        Subject: CN=Root1
        Subject Public Key Info:
            Public Key Algorithm: rsaEncryption
                RSA Public-Key: (2048 bit)
                Modulus:
                    00:a5:a8:1c:75:b4:d9:3c:11:2d:9f:f2:b5:f5:f7:
                    5d:e2:f4:05:7a:5f:54:72:8a:bf:aa:c0:0f:7c:68:
                    cf:0f:dc:50:ae:05:fb:03:4c:18:d7:e8:9b:6c:c3:
                    83:af:a8:95:4a:ec:15:b3:80:23:c9:7c:a9:67:4b:
                    ca:34:6b:71:2f:08:3b:c6:93:be:f5:d7:f1:ba:7b:
                    68:e4:53:25:11:5b:69:92:50:78:d8:79:de:4a:91:
                    b8:a7:53:93:ba:dc:90:3b:2b:57:d5:ae:0d:6e:55:
                    6a:34:5e:81:0c:89:0a:79:3b:ff:d2:2b:e8:01:5c:
                    c9:71:bb:ee:9f:ec:64:41:9f:f0:69:54:01:38:1f:
                    86:61:8f:4f:5c:2c:dd:1c:95:4a:5c:15:45:7d:53:
                    8d:ed:08:e4:dd:1e:49:25:6e:28:64:09:0c:4a:b1:
                    c5:45:44:7b:3b:75:20:39:c9:9e:bb:b0:f4:4f:25:
                    59:2d:ac:9e:52:88:d9:24:a5:27:3f:58:47:17:01:
                    c0:21:97:9f:67:90:f0:d8:37:74:69:98:4d:8d:6c:
                    e1:00:39:53:00:39:23:5d:c1:18:b2:9b:a7:36:fc:
                    84:13:b9:27:e6:fa:33:f1:cf:13:dc:97:1e:39:e3:
                    19:22:51:ad:3b:7d:4a:55:e6:bf:d1:ae:4c:14:fa:
                    dd:e9
                Exponent: 65537 (0x10001)
        X509v3 extensions:
            X509v3 Subject Key Identifier: 
                86:77:D5:7B:44:F7:3E:30:B9:FB:61:E3:20:24:5D:95:D0:6C:81:87
            X509v3 Authority Key Identifier: 
                keyid:86:77:D5:7B:44:F7:3E:30:B9:FB:61:E3:20:24:5D:95:D0:6C:81:87

            Authority Information Access: 
                CA Issuers - URI:http://url-for-aia/Root1.cer

            X509v3 CRL Distribution Points: 

                Full Name:
                  URI:http://url-for-crl/Root1.crl

            X509v3 Key Usage: critical
                Certificate Sign, CRL Sign
            X509v3 Basic Constraints: critical
                CA:TRUE
    Signature Algorithm: sha256WithRSAEncryption
         95:df:96:7a:9e:70:f7:00:6c:48:df:a8:3c:64:42:51:f1:81:
         13:3d:ec:c9:73:41:5f:21:36:fb:45:e9:36:f4:ec:12:a0:9b:
         19:70:6e:72:ee:d3:34:e1:3f:5f:b7:d4:58:03:fe:a3:6f:0b:
         e1:6f:6b:f6:8d:34:cd:fb:96:83:84:47:d4:65:12:3b:8a:d7:
         f3:4d:f5:c7:69:59:b0:53:a7:be:a6:73:64:4b:50:63:f8:32:
         88:f7:ff:13:bc:31:5b:3d:d4:4f:73:32:94:98:e7:e7:a6:84:
         39:7e:b3:eb:d8:2f:da:08:36:d0:60:52:b6:6a:f2:df:8d:f2:
         6f:53:56:1d:19:e9:c1:b9:a0:62:da:cd:41:1d:15:bc:29:02:
         eb:9b:1a:c3:80:f3:58:a1:ed:14:43:3e:fc:ec:38:cd:5b:bf:
         58:20:30:96:1e:ef:da:30:7f:b6:10:f3:fa:e8:77:0a:28:80:
         79:b0:aa:c3:02:26:da:36:6e:50:f8:c6:c3:b0:5f:57:48:f3:
         b6:be:5e:1f:c4:ef:84:46:5e:93:cb:35:a2:3f:b9:56:7a:77:
         47:bd:78:68:03:ab:31:9d:3b:b5:2f:da:b2:87:9a:fa:b0:93:
         fa:de:5f:93:bb:f3:b4:96:c5:b6:f1:ba:85:0c:66:b4:81:f8:
         df:5c:52:c0
-----BEGIN CERTIFICATE-----
MIIDfDCCAmSgAwIBAgIUHTOHTUzz1GTelEaiXhQLAMGIg1swDQYJKoZIhvcNAQEL
BQAwEDEOMAwGA1UEAwwFUm9vdDEwHhcNMTUwMTAxMTIwMDAwWhcNMTgwMTAxMTIw
MDAwWjAQMQ4wDAYDVQQDDAVSb290MTCCASIwDQYJKoZIhvcNAQEBBQADggEPADCC
AQoCggEBAKWoHHW02TwRLZ/ytfX3XeL0BXpfVHKKv6rAD3xozw/cUK4F+wNMGNfo
m2zDg6+olUrsFbOAI8l8qWdLyjRrcS8IO8aTvvXX8bp7aORTJRFbaZJQeNh53kqR
uKdTk7rckDsrV9WuDW5VajRegQyJCnk7/9Ir6AFcyXG77p/sZEGf8GlUATgfhmGP
T1ws3RyVSlwVRX1Tje0I5N0eSSVuKGQJDEqxxUVEezt1IDnJnruw9E8lWS2snlKI
2SSlJz9YRxcBwCGXn2eQ8Ng3dGmYTY1s4QA5UwA5I13BGLKbpzb8hBO5J+b6M/HP
E9yXHjnjGSJRrTt9SlXmv9GuTBT63ekCAwEAAaOBzTCByjAdBgNVHQ4EFgQUhnfV
e0T3PjC5+2HjICRdldBsgYcwHwYDVR0jBBgwFoAUhnfVe0T3PjC5+2HjICRdldBs
gYcwOAYIKwYBBQUHAQEELDAqMCgGCCsGAQUFBzAChhxodHRwOi8vdXJsLWZvci1h
aWEvUm9vdDEuY2VyMC0GA1UdHwQmMCQwIqAgoB6GHGh0dHA6Ly91cmwtZm9yLWNy
bC9Sb290MS5jcmwwDgYDVR0PAQH/BAQDAgEGMA8GA1UdEwEB/wQFMAMBAf8wDQYJ
KoZIhvcNAQELBQADggEBAJXflnqecPcAbEjfqDxkQlHxgRM97MlzQV8hNvtF6Tb0
7BKgmxlwbnLu0zThP1+31FgD/qNvC+Fva/aNNM37loOER9RlEjuK1/NN9cdpWbBT
p76mc2RLUGP4Moj3/xO8MVs91E9zMpSY5+emhDl+s+vYL9oINtBgUrZq8t+N8m9T
Vh0Z6cG5oGLazUEdFbwpAuubGsOA81ih7RRDPvzsOM1bv1ggMJYe79owf7YQ8/ro
dwoogHmwqsMCJto2blD4xsOwX1dI87a+Xh/E74RGXpPLNaI/uVZ6d0e9eGgDqzGd
O7Uv2rKHmvqwk/reX5O787SWxbbxuoUMZrSB+N9cUsA=
-----END CERTIFICATE-----
