[Created by: ./generate-certs.py]

Target

Certificate:
    Data:
        Version: 3 (0x2)
        Serial Number:
            1d:33:87:4d:4c:f3:d4:64:de:94:46:a2:5e:14:0b:00:c1:88:83:5c
        Signature Algorithm: sha256WithRSAEncryption
        Issuer: CN=Root1
        Validity
            Not Before: Jan  1 12:00:00 2015 GMT
            Not After : Jan  1 12:00:00 2018 GMT
        Subject: CN=Target
        Subject Public Key Info:
            Public Key Algorithm: rsaEncryption
                RSA Public-Key: (2048 bit)
                Modulus:
                    00:c9:68:22:14:94:16:f2:b4:df:52:f6:35:7f:dc:
                    05:12:3c:c1:23:4b:7b:c9:fc:57:bd:da:0f:45:45:
                    e0:c8:31:0f:20:c0:e3:49:5d:02:87:44:d6:a2:5a:
                    65:f9:ce:29:c3:b0:dd:a5:2e:fd:c5:01:fa:8d:95:
                    4e:09:4e:4e:b1:79:87:32:39:31:4f:10:b7:b7:b5:
                    8b:7f:24:fc:13:cc:1d:14:23:bd:85:1f:7e:52:73:
                    31:7d:58:e2:27:49:95:3d:bd:36:5a:83:ee:d0:31:
                    95:77:ac:03:1d:70:b7:92:2f:68:6a:d8:ce:0e:07:
                    0e:8a:f0:d2:74:f0:55:5b:f6:c7:af:60:ea:66:75:
                    e9:7d:16:56:4f:ab:4b:c7:e8:0f:82:f9:e7:10:c1:
                    73:55:e7:ee:ca:06:86:5a:42:a9:ad:b9:b4:9d:7d:
                    9e:2e:84:ed:86:b4:79:2f:b3:43:69:e9:4a:2c:f0:
                    62:c5:56:36:17:cd:38:a7:35:bc:a0:13:06:37:1e:
                    12:93:fa:70:e6:6f:44:89:49:51:4d:ed:7d:d2:eb:
                    01:4c:83:44:2b:0f:d4:e3:76:1f:d5:60:a2:56:87:
                    58:cc:05:fa:58:97:16:33:18:2f:03:aa:4c:f6:d2:
                    ee:f8:84:95:a1:32:dd:22:6f:7c:6b:c4:da:84:39:
                    bc:29
                Exponent: 65537 (0x10001)
        X509v3 extensions:
            X509v3 Subject Key Identifier: 
                9D:45:8A:F1:72:8E:7E:99:87:E6:1C:D0:CA:8D:6D:1B:FA:56:F1:54
            X509v3 Authority Key Identifier: 
                keyid:86:77:D5:7B:44:F7:3E:30:B9:FB:61:E3:20:24:5D:95:D0:6C:81:87

            Authority Information Access: 
                CA Issuers - URI:http://url-for-aia/Root1.cer

            X509v3 CRL Distribution Points: 

                Full Name:
                  URI:http://url-for-crl/Root1.crl

            X509v3 Key Usage: critical
                Digital Signature, Key Encipherment
            X509v3 Extended Key Usage: 
                TLS Web Server Authentication, TLS Web Client Authentication
    Signature Algorithm: sha256WithRSAEncryption
         14:03:0f:eb:1c:a6:6c:22:49:f0:3d:6b:97:2c:ff:0c:d4:68:
         8e:6e:22:d3:e0:de:b5:40:f7:87:da:20:9d:62:91:29:c0:24:
         95:82:39:23:08:39:ac:61:64:5d:2c:84:99:2d:48:55:33:fc:
         4d:45:e7:6f:76:39:78:f5:59:a7:c7:ae:6b:a8:44:17:e5:3b:
         c9:e6:1c:93:cd:9f:5e:8f:e9:f0:d6:82:39:e3:fc:38:fa:0d:
         37:a2:23:d8:c8:e2:50:6b:95:61:3d:1e:03:04:25:f6:03:1c:
         45:1a:79:0d:f2:e7:70:0f:2b:44:17:c4:d6:e1:a1:87:ad:e5:
         0d:53:84:3d:8d:7c:42:99:f8:91:cc:38:1b:cd:98:b5:a2:2a:
         47:0f:55:39:fc:ac:ba:07:40:e0:09:ec:26:ba:49:05:fe:e2:
         69:af:d0:f9:7e:ba:bb:05:cd:f6:f3:e4:3b:2c:4e:15:ee:68:
         cb:b9:ac:99:7a:3a:2e:22:f7:22:ff:52:e3:b4:0f:18:e0:ef:
         b8:eb:97:46:90:ed:e6:b6:dc:4a:f4:3e:dd:84:21:0e:4c:ca:
         a2:de:76:ee:25:e3:f8:e7:a2:75:2d:a1:6a:3d:d7:24:b2:64:
         94:a3:34:76:24:95:cf:52:6c:1f:3a:96:36:38:94:91:85:70:
         af:66:18:9b
-----BEGIN CERTIFICATE-----
MIIDizCCAnOgAwIBAgIUHTOHTUzz1GTelEaiXhQLAMGIg1wwDQYJKoZIhvcNAQEL
BQAwEDEOMAwGA1UEAwwFUm9vdDEwHhcNMTUwMTAxMTIwMDAwWhcNMTgwMTAxMTIw
MDAwWjARMQ8wDQYDVQQDDAZUYXJnZXQwggEiMA0GCSqGSIb3DQEBAQUAA4IBDwAw
ggEKAoIBAQDJaCIUlBbytN9S9jV/3AUSPMEjS3vJ/Fe92g9FReDIMQ8gwONJXQKH
RNaiWmX5zinDsN2lLv3FAfqNlU4JTk6xeYcyOTFPELe3tYt/JPwTzB0UI72FH35S
czF9WOInSZU9vTZag+7QMZV3rAMdcLeSL2hq2M4OBw6K8NJ08FVb9sevYOpmdel9
FlZPq0vH6A+C+ecQwXNV5+7KBoZaQqmtubSdfZ4uhO2GtHkvs0Np6Uos8GLFVjYX
zTinNbygEwY3HhKT+nDmb0SJSVFN7X3S6wFMg0QrD9Tjdh/VYKJWh1jMBfpYlxYz
GC8Dqkz20u74hJWhMt0ib3xrxNqEObwpAgMBAAGjgdswgdgwHQYDVR0OBBYEFJ1F
ivFyjn6Zh+Yc0MqNbRv6VvFUMB8GA1UdIwQYMBaAFIZ31XtE9z4wufth4yAkXZXQ
bIGHMDgGCCsGAQUFBwEBBCwwKjAoBggrBgEFBQcwAoYcaHR0cDovL3VybC1mb3It
YWlhL1Jvb3QxLmNlcjAtBgNVHR8EJjAkMCKgIKAehhxodHRwOi8vdXJsLWZvci1j
cmwvUm9vdDEuY3JsMA4GA1UdDwEB/wQEAwIFoDAdBgNVHSUEFjAUBggrBgEFBQcD
AQYIKwYBBQUHAwIwDQYJKoZIhvcNAQELBQADggEBABQDD+scpmwiSfA9a5cs/wzU
aI5uItPg3rVA94faIJ1ikSnAJJWCOSMIOaxhZF0shJktSFUz/E1F5292OXj1WafH
rmuoRBflO8nmHJPNn16P6fDWgjnj/Dj6DTeiI9jI4lBrlWE9HgMEJfYDHEUaeQ3y
53APK0QXxNbhoYet5Q1ThD2NfEKZ+JHMOBvNmLWiKkcPVTn8rLoHQOAJ7Ca6SQX+
4mmv0Pl+ursFzfbz5DssThXuaMu5rJl6Oi4i9yL/UuO0Dxjg77jrl0aQ7ea23Er0
Pt2EIQ5MyqLedu4l4/jnonUtoWo91ySyZJSjNHYklc9SbB86ljY4lJGFcK9mGJs=
-----END CERTIFICATE-----
