[Created by: ./generate-chains.py]

Single certificate chain for serverAuth which is self-signed.

Certificate:
    Data:
        Version: 3 (0x2)
        Serial Number:
            50:d7:5c:94:d3:bf:ee:e0:4d:80:0e:c2:98:2a:67:92:1d:ce:1b:10
        Signature Algorithm: sha256WithRSAEncryption
        Issuer: CN=Target
        Validity
            Not Before: Oct  5 12:00:00 2021 GMT
            Not After : Oct  5 12:00:00 2022 GMT
        Subject: CN=Target
        Subject Public Key Info:
            Public Key Algorithm: rsaEncryption
                Public-Key: (2048 bit)
                Modulus:
                    00:bc:fe:7e:a2:9b:ee:f4:72:63:7c:4f:98:bd:f8:
                    1c:c6:73:19:a2:b2:69:86:32:7d:90:a2:74:fe:0d:
                    5d:89:6d:2f:70:44:c3:ef:3a:83:ef:11:6d:3b:41:
                    22:f7:57:e5:39:f5:e0:46:fc:77:03:93:2a:af:02:
                    92:22:fd:6b:7b:78:d7:8c:b3:84:69:33:30:3f:d2:
                    27:cd:99:7c:1e:07:65:e8:5c:37:48:c0:81:72:28:
                    a3:cd:96:e4:49:85:6b:33:c9:dc:01:fb:5e:9a:63:
                    79:54:78:3b:4e:97:60:10:d8:6b:5a:59:a8:93:12:
                    3f:b5:65:1b:9f:7a:f3:16:f9:dc:c4:69:3b:21:70:
                    bb:fb:c7:7a:28:9e:e6:92:97:be:f9:7b:b0:21:9a:
                    36:29:2f:21:a2:26:d8:d6:7d:57:aa:c7:aa:bf:2c:
                    89:3a:9b:80:64:f1:12:1f:80:7a:0d:6e:31:00:9f:
                    43:16:b8:23:19:4f:fc:ab:b5:33:8a:6b:14:60:cf:
                    ca:6d:cb:8a:f2:c6:ec:17:96:1c:b2:8a:39:80:f9:
                    45:d0:d1:6d:67:ac:e2:93:29:a2:04:42:8f:e5:c4:
                    93:65:9a:40:5e:6d:18:97:0a:16:8d:7c:97:72:25:
                    54:cc:b9:6e:b5:d9:73:3d:31:e0:d4:f1:a9:31:3b:
                    db:a5
                Exponent: 65537 (0x10001)
        X509v3 extensions:
            X509v3 Subject Key Identifier: 
                A1:1A:D0:4E:4C:C7:EC:D6:20:D5:32:6A:A5:22:02:37:FE:A8:F6:E7
            X509v3 Authority Key Identifier: 
                A1:1A:D0:4E:4C:C7:EC:D6:20:D5:32:6A:A5:22:02:37:FE:A8:F6:E7
            Authority Information Access: 
                CA Issuers - URI:http://url-for-aia/Target.cer
            X509v3 CRL Distribution Points: 
                Full Name:
                  URI:http://url-for-crl/Target.crl
            X509v3 Key Usage: critical
                Digital Signature, Key Encipherment
            X509v3 Extended Key Usage: 
                TLS Web Server Authentication
    Signature Algorithm: sha256WithRSAEncryption
    Signature Value:
        86:83:3e:bc:d4:7a:a5:48:75:9e:16:fb:5e:a9:eb:53:47:d7:
        c9:4d:88:27:10:67:70:4e:07:bc:7a:60:3b:de:4c:51:8e:a2:
        af:d3:3d:28:87:bc:6b:51:d1:85:b6:31:45:32:f0:25:8c:e3:
        ff:0d:6a:2d:b9:7e:db:0e:fc:7d:09:5c:e6:d8:f5:d8:30:6f:
        37:09:ba:c9:ce:ac:13:34:22:f9:dd:de:3a:45:65:68:ba:65:
        ba:7f:be:d1:0b:2e:21:15:24:53:1a:ff:d7:d9:7a:8b:ff:1b:
        46:a9:72:f1:35:c5:e7:29:5a:5a:95:51:42:31:29:a6:0b:51:
        37:f4:e3:45:78:9b:f7:86:69:af:1a:a4:d4:25:b6:36:e3:fb:
        6e:15:5c:13:22:f8:4b:fc:78:bd:15:94:82:64:dc:e7:e1:04:
        f6:3a:35:bc:d2:0c:c4:85:cd:43:59:d0:c5:e6:67:38:2a:64:
        ea:7e:99:ed:b5:b4:18:c0:3b:a7:2a:45:1f:1e:bf:94:56:57:
        ee:1f:9d:dc:5d:24:2a:36:64:cc:09:1a:b9:64:6f:26:79:49:
        2f:2a:08:42:35:5f:53:b1:e3:b4:37:64:e4:c1:43:10:ef:cb:
        7f:5f:cd:dd:ed:10:8b:2d:21:25:4f:12:c6:c7:6b:c6:ea:c8:
        4c:3a:d3:1d
-----BEGIN CERTIFICATE-----
MIIDhDCCAmygAwIBAgIUUNdclNO/7uBNgA7CmCpnkh3OGxAwDQYJKoZIhvcNAQEL
BQAwETEPMA0GA1UEAwwGVGFyZ2V0MB4XDTIxMTAwNTEyMDAwMFoXDTIyMTAwNTEy
MDAwMFowETEPMA0GA1UEAwwGVGFyZ2V0MIIBIjANBgkqhkiG9w0BAQEFAAOCAQ8A
MIIBCgKCAQEAvP5+opvu9HJjfE+YvfgcxnMZorJphjJ9kKJ0/g1diW0vcETD7zqD
7xFtO0Ei91flOfXgRvx3A5MqrwKSIv1re3jXjLOEaTMwP9InzZl8Hgdl6Fw3SMCB
ciijzZbkSYVrM8ncAftemmN5VHg7TpdgENhrWlmokxI/tWUbn3rzFvncxGk7IXC7
+8d6KJ7mkpe++XuwIZo2KS8hoibY1n1XqseqvyyJOpuAZPESH4B6DW4xAJ9DFrgj
GU/8q7UzimsUYM/KbcuK8sbsF5Ycsoo5gPlF0NFtZ6zikymiBEKP5cSTZZpAXm0Y
lwoWjXyXciVUzLlutdlzPTHg1PGpMTvbpQIDAQABo4HTMIHQMB0GA1UdDgQWBBSh
GtBOTMfs1iDVMmqlIgI3/qj25zAfBgNVHSMEGDAWgBShGtBOTMfs1iDVMmqlIgI3
/qj25zA5BggrBgEFBQcBAQQtMCswKQYIKwYBBQUHMAKGHWh0dHA6Ly91cmwtZm9y
LWFpYS9UYXJnZXQuY2VyMC4GA1UdHwQnMCUwI6AhoB+GHWh0dHA6Ly91cmwtZm9y
LWNybC9UYXJnZXQuY3JsMA4GA1UdDwEB/wQEAwIFoDATBgNVHSUEDDAKBggrBgEF
BQcDATANBgkqhkiG9w0BAQsFAAOCAQEAhoM+vNR6pUh1nhb7XqnrU0fXyU2IJxBn
cE4HvHpgO95MUY6ir9M9KIe8a1HRhbYxRTLwJYzj/w1qLbl+2w78fQlc5tj12DBv
Nwm6yc6sEzQi+d3eOkVlaLplun++0QsuIRUkUxr/19l6i/8bRqly8TXF5ylaWpVR
QjEppgtRN/TjRXib94Zprxqk1CW2NuP7bhVcEyL4S/x4vRWUgmTc5+EE9jo1vNIM
xIXNQ1nQxeZnOCpk6n6Z7bW0GMA7pypFHx6/lFZX7h+d3F0kKjZkzAkauWRvJnlJ
LyoIQjVfU7HjtDdk5MFDEO/Lf1/N3e0Qiy0hJU8SxsdrxurITDrTHQ==
-----END CERTIFICATE-----
