Generated by ./generate-certs.py.
Refer to generator script docstring for details.
Certificate:
    Data:
        Version: 3 (0x2)
        Serial Number:
            26:7a:57:9f:40:d9:68:0b:83:9e:04:66:b2:14:80:b2:ea:fa:e2:55
        Signature Algorithm: sha256WithRSAEncryption
        Issuer: CN=I1
        Validity
            Not Before: Nov  3 12:00:00 2020 GMT
            Not After : Nov  3 12:00:00 2021 GMT
        Subject: CN=C1
        Subject Public Key Info:
            Public Key Algorithm: rsaEncryption
                RSA Public-Key: (2048 bit)
                Modulus:
                    00:ae:71:64:ba:9f:1d:b4:bc:c9:8a:c7:ed:ef:a5:
                    f4:42:5d:c6:db:d5:c9:b0:77:45:83:d1:15:bf:2f:
                    9b:19:a3:7c:fb:fd:70:62:0d:95:a7:bd:58:9f:2c:
                    d5:c5:78:fc:fa:23:e0:97:3d:9d:0c:a1:d9:71:8f:
                    03:28:c7:7c:d1:09:7f:94:90:74:c1:db:c6:ec:ae:
                    da:cd:51:45:20:23:3d:f2:23:f5:f6:53:23:86:b0:
                    16:84:4a:ea:bd:d4:0a:1a:70:91:70:8d:21:06:b9:
                    9e:fc:2f:a2:ad:80:24:b2:06:ed:6b:55:ac:cb:ad:
                    70:44:f1:ed:d4:21:e5:cd:fe:1c:42:e8:79:0e:7d:
                    87:18:08:c1:85:3c:32:f6:ee:96:dc:5a:84:63:90:
                    e3:67:a3:fe:31:52:ec:bc:43:24:86:77:a5:56:a3:
                    4c:fe:39:2f:ed:d2:75:64:53:30:1a:a3:ce:30:cd:
                    f2:7b:13:71:be:b4:80:95:9a:a3:8e:f1:3a:f5:15:
                    65:a8:a3:91:34:12:67:dc:34:cf:25:5d:8f:ef:79:
                    64:49:af:0a:3c:17:89:b5:95:da:85:2b:df:7a:f1:
                    57:1f:0f:b0:c1:bc:e1:5b:4a:86:a7:2e:c8:6b:a3:
                    96:c6:28:29:d6:33:7c:f2:e7:5e:19:09:6c:93:cb:
                    14:cd
                Exponent: 65537 (0x10001)
        X509v3 extensions:
            X509v3 Subject Key Identifier: 
                43:56:C8:D4:66:24:6F:71:A2:C8:6F:A6:A1:0B:0F:53:F2:16:15:5B
            X509v3 Authority Key Identifier: 
                keyid:1B:26:D0:C4:43:00:72:E2:A4:AB:01:D1:A4:68:D5:E5:B2:1E:9C:0D

            Authority Information Access: 
                CA Issuers - URI:http://url-for-aia/I1.cer

            X509v3 CRL Distribution Points: 

                Full Name:
                  URI:http://url-for-crl/I1.crl

            X509v3 Key Usage: critical
                Digital Signature, Key Encipherment
            X509v3 Extended Key Usage: 
                TLS Web Server Authentication, TLS Web Client Authentication
    Signature Algorithm: sha256WithRSAEncryption
         0a:c8:a8:ab:c1:3f:ec:8c:1d:c4:bc:ac:6c:ab:d5:28:4a:78:
         43:90:ff:9c:8d:e3:1b:b7:79:bc:4d:5c:c2:f4:31:4a:1a:34:
         55:7c:32:79:25:4f:cb:9a:2a:41:3c:55:70:3f:d7:88:2e:e8:
         1e:98:05:df:be:6f:e5:28:d2:f0:6a:9c:c1:c3:ed:5b:26:f9:
         72:de:80:2e:3c:15:1d:d4:be:bd:26:a6:bb:1e:f8:9b:fa:fb:
         1a:50:a0:a1:4e:57:d4:0d:0e:63:dc:b0:24:7d:6f:d7:88:f9:
         9d:16:dd:60:b3:61:39:63:a9:73:5c:08:f8:98:c1:62:a8:51:
         d8:0e:7e:3f:7a:62:9e:d1:31:ab:75:05:d5:c1:a3:59:ad:c5:
         e0:c5:57:c5:41:1f:ab:b6:04:35:d5:81:5f:64:9d:55:f6:09:
         fd:5b:6e:41:85:27:77:d8:33:62:46:a9:a9:ce:a0:0f:c4:95:
         81:01:87:f6:90:42:fc:8f:04:3b:55:2b:25:22:c7:9e:f6:8a:
         74:fa:9d:13:a5:d1:6b:c1:43:9d:45:4c:38:d5:4d:5c:84:73:
         20:9a:7e:c2:4b:f5:e9:82:b3:74:75:f0:e4:ab:fc:d6:13:12:
         c8:46:f4:ff:da:b1:bc:5e:a0:2f:fb:08:ee:bc:4f:a8:44:b9:
         fc:34:02:7b
-----BEGIN CERTIFICATE-----
MIIDfjCCAmagAwIBAgIUJnpXn0DZaAuDngRmshSAsur64lUwDQYJKoZIhvcNAQEL
BQAwDTELMAkGA1UEAwwCSTEwHhcNMjAxMTAzMTIwMDAwWhcNMjExMTAzMTIwMDAw
WjANMQswCQYDVQQDDAJDMTCCASIwDQYJKoZIhvcNAQEBBQADggEPADCCAQoCggEB
AK5xZLqfHbS8yYrH7e+l9EJdxtvVybB3RYPRFb8vmxmjfPv9cGINlae9WJ8s1cV4
/Poj4Jc9nQyh2XGPAyjHfNEJf5SQdMHbxuyu2s1RRSAjPfIj9fZTI4awFoRK6r3U
ChpwkXCNIQa5nvwvoq2AJLIG7WtVrMutcETx7dQh5c3+HELoeQ59hxgIwYU8Mvbu
ltxahGOQ42ej/jFS7LxDJIZ3pVajTP45L+3SdWRTMBqjzjDN8nsTcb60gJWao47x
OvUVZaijkTQSZ9w0zyVdj+95ZEmvCjwXibWV2oUr33rxVx8PsMG84VtKhqcuyGuj
lsYoKdYzfPLnXhkJbJPLFM0CAwEAAaOB1TCB0jAdBgNVHQ4EFgQUQ1bI1GYkb3Gi
yG+moQsPU/IWFVswHwYDVR0jBBgwFoAUGybQxEMAcuKkqwHRpGjV5bIenA0wNQYI
KwYBBQUHAQEEKTAnMCUGCCsGAQUFBzAChhlodHRwOi8vdXJsLWZvci1haWEvSTEu
Y2VyMCoGA1UdHwQjMCEwH6AdoBuGGWh0dHA6Ly91cmwtZm9yLWNybC9JMS5jcmww
DgYDVR0PAQH/BAQDAgWgMB0GA1UdJQQWMBQGCCsGAQUFBwMBBggrBgEFBQcDAjAN
BgkqhkiG9w0BAQsFAAOCAQEACsioq8E/7IwdxLysbKvVKEp4Q5D/nI3jG7d5vE1c
wvQxSho0VXwyeSVPy5oqQTxVcD/XiC7oHpgF375v5SjS8GqcwcPtWyb5ct6ALjwV
HdS+vSamux74m/r7GlCgoU5X1A0OY9ywJH1v14j5nRbdYLNhOWOpc1wI+JjBYqhR
2A5+P3pintExq3UF1cGjWa3F4MVXxUEfq7YENdWBX2SdVfYJ/VtuQYUnd9gzYkap
qc6gD8SVgQGH9pBC/I8EO1UrJSLHnvaKdPqdE6XRa8FDnUVMONVNXIRzIJp+wkv1
6YKzdHXw5Kv81hMSyEb0/9qxvF6gL/sI7rxPqES5/DQCew==
-----END CERTIFICATE-----
