Generated by ./generate-certs.py.
Refer to generator script docstring for details.
Certificate:
    Data:
        Version: 3 (0x2)
        Serial Number:
            45:5b:b7:0e:4f:f1:04:6d:35:b4:b4:54:3d:27:94:8e:c4:e4:1b:2e
        Signature Algorithm: sha256WithRSAEncryption
        Issuer: CN=i1
        Validity
            Not Before: Nov  3 12:00:00 2020 GMT
            Not After : Nov  3 12:00:00 2021 GMT
        Subject: CN=C2
        Subject Public Key Info:
            Public Key Algorithm: rsaEncryption
                RSA Public-Key: (2048 bit)
                Modulus:
                    00:b9:9e:f6:53:ca:8c:31:b4:0a:6a:26:23:11:03:
                    cc:e1:e3:93:9e:d8:76:52:89:2f:0c:42:15:21:c0:
                    d9:bc:16:ea:6e:bc:39:c0:2f:62:8a:35:c9:95:71:
                    4d:a3:45:ac:7f:b3:7e:ec:fa:ac:f3:e8:bf:66:02:
                    1a:b1:bd:ce:79:17:6a:19:12:96:eb:b1:9d:dd:e3:
                    1c:69:15:e1:f6:34:ed:ba:4d:af:0a:50:03:43:2f:
                    9d:7c:8e:79:fa:92:13:2d:73:16:a8:de:72:c2:61:
                    19:54:4b:01:2f:5c:a1:77:fc:f7:82:0b:aa:cb:8f:
                    55:0d:19:d8:ab:2c:af:35:b4:f7:eb:52:26:97:5e:
                    5b:00:f3:a8:12:fa:ce:0d:0d:56:cd:15:1c:7a:67:
                    82:9f:b3:fb:5f:05:9c:b7:9f:35:66:3b:18:93:b8:
                    2d:1d:47:9b:4b:5e:f3:20:6f:83:c7:5d:91:d2:2b:
                    19:9d:a9:f3:46:ff:93:eb:3f:fb:5b:40:a0:8d:5d:
                    ab:a5:de:d1:02:d4:6b:3e:1a:24:5c:86:a2:ec:9d:
                    50:1b:c3:92:22:27:5f:a7:79:5b:40:97:cc:ca:10:
                    ff:ed:06:2a:51:11:e5:cb:b1:0a:82:84:92:2f:00:
                    10:6d:19:af:db:66:53:8d:f7:10:b3:bc:4a:52:83:
                    eb:b1
                Exponent: 65537 (0x10001)
        X509v3 extensions:
            X509v3 Subject Key Identifier: 
                37:6E:35:3A:24:04:92:08:FF:D2:5F:88:1F:86:C1:9C:95:A9:0D:72
            X509v3 Authority Key Identifier: 
                keyid:E3:AC:1D:35:9E:1C:CC:C6:29:9F:37:59:41:C6:DA:C9:44:2C:B2:F3

            Authority Information Access: 
                CA Issuers - URI:http://url-for-aia/i1.cer

            X509v3 CRL Distribution Points: 

                Full Name:
                  URI:http://url-for-crl/i1.crl

            X509v3 Key Usage: critical
                Digital Signature, Key Encipherment
            X509v3 Extended Key Usage: 
                TLS Web Server Authentication, TLS Web Client Authentication
    Signature Algorithm: sha256WithRSAEncryption
         90:e7:5b:22:d3:4d:55:9f:8f:e4:86:4e:b7:47:0f:48:93:d7:
         58:28:9f:a6:8c:39:31:c2:c5:ae:a9:9e:4a:b7:53:07:bd:c9:
         a0:48:a8:05:7d:f8:32:91:ad:6d:5a:03:e9:8f:f3:61:6b:d0:
         35:d4:b3:64:61:34:44:8b:a3:da:f6:8a:5b:24:8b:3b:ec:ed:
         31:d8:c6:bf:8a:57:36:44:f8:a4:a6:d9:1f:3e:11:7e:3f:39:
         ce:67:08:15:30:01:65:4e:fd:f0:fc:00:14:ab:5a:55:16:f3:
         ad:e3:65:41:63:f0:5d:b8:86:f1:26:d0:55:8e:87:97:ca:92:
         05:13:9c:2e:83:66:3d:a0:ee:76:3c:db:69:4d:22:60:3b:22:
         11:16:ed:8c:64:c3:87:22:df:67:f4:b7:8c:a3:a0:3b:c7:5c:
         c3:f9:3c:d7:69:26:c3:70:f6:d0:0a:1f:c1:2b:49:9c:c2:33:
         d5:d4:cd:02:28:47:0a:60:00:04:78:c5:66:b8:00:2b:10:b7:
         1b:23:cb:e9:f8:6a:54:5c:4a:60:c9:5f:ef:9a:6a:44:28:d1:
         b9:01:07:b3:8a:82:c8:94:45:1f:47:06:f6:9c:d0:02:ab:86:
         b5:62:e2:3f:2c:ef:f6:7b:78:9b:fe:d6:d4:1b:d3:67:05:99:
         9c:af:c8:e5
-----BEGIN CERTIFICATE-----
MIIDfjCCAmagAwIBAgIURVu3Dk/xBG01tLRUPSeUjsTkGy4wDQYJKoZIhvcNAQEL
BQAwDTELMAkGA1UEAwwCaTEwHhcNMjAxMTAzMTIwMDAwWhcNMjExMTAzMTIwMDAw
WjANMQswCQYDVQQDDAJDMjCCASIwDQYJKoZIhvcNAQEBBQADggEPADCCAQoCggEB
ALme9lPKjDG0CmomIxEDzOHjk57YdlKJLwxCFSHA2bwW6m68OcAvYoo1yZVxTaNF
rH+zfuz6rPPov2YCGrG9znkXahkSluuxnd3jHGkV4fY07bpNrwpQA0MvnXyOefqS
Ey1zFqjecsJhGVRLAS9coXf894ILqsuPVQ0Z2KssrzW09+tSJpdeWwDzqBL6zg0N
Vs0VHHpngp+z+18FnLefNWY7GJO4LR1Hm0te8yBvg8ddkdIrGZ2p80b/k+s/+1tA
oI1dq6Xe0QLUaz4aJFyGouydUBvDkiInX6d5W0CXzMoQ/+0GKlER5cuxCoKEki8A
EG0Zr9tmU433ELO8SlKD67ECAwEAAaOB1TCB0jAdBgNVHQ4EFgQUN241OiQEkgj/
0l+IH4bBnJWpDXIwHwYDVR0jBBgwFoAU46wdNZ4czMYpnzdZQcbayUQssvMwNQYI
KwYBBQUHAQEEKTAnMCUGCCsGAQUFBzAChhlodHRwOi8vdXJsLWZvci1haWEvaTEu
Y2VyMCoGA1UdHwQjMCEwH6AdoBuGGWh0dHA6Ly91cmwtZm9yLWNybC9pMS5jcmww
DgYDVR0PAQH/BAQDAgWgMB0GA1UdJQQWMBQGCCsGAQUFBwMBBggrBgEFBQcDAjAN
BgkqhkiG9w0BAQsFAAOCAQEAkOdbItNNVZ+P5IZOt0cPSJPXWCifpow5McLFrqme
SrdTB73JoEioBX34MpGtbVoD6Y/zYWvQNdSzZGE0RIuj2vaKWySLO+ztMdjGv4pX
NkT4pKbZHz4Rfj85zmcIFTABZU798PwAFKtaVRbzreNlQWPwXbiG8SbQVY6Hl8qS
BROcLoNmPaDudjzbaU0iYDsiERbtjGTDhyLfZ/S3jKOgO8dcw/k812kmw3D20Aof
wStJnMIz1dTNAihHCmAABHjFZrgAKxC3GyPL6fhqVFxKYMlf75pqRCjRuQEHs4qC
yJRFH0cG9pzQAquGtWLiPyzv9nt4m/7W1BvTZwWZnK/I5Q==
-----END CERTIFICATE-----
