Generated by ./generate-certs.py.
Refer to generator script docstring for details.
Certificate:
    Data:
        Version: 3 (0x2)
        Serial Number:
            7b:e6:27:43:08:d3:93:75:8e:0e:ac:20:0e:fd:8d:81:13:1a:ef:e1
        Signature Algorithm: sha256WithRSAEncryption
        Issuer: CN=I2
        Validity
            Not Before: Nov  3 12:00:00 2020 GMT
            Not After : Nov  3 12:00:00 2021 GMT
        Subject: CN=D
        Subject Public Key Info:
            Public Key Algorithm: rsaEncryption
                RSA Public-Key: (2048 bit)
                Modulus:
                    00:c2:ae:07:4a:35:ce:ea:26:bf:b9:d4:ac:b8:c2:
                    4b:40:c7:99:e2:52:d5:24:8a:83:1a:31:fd:dd:b4:
                    ec:b9:8a:90:67:d9:7f:d3:ea:7f:8a:96:d6:ab:a5:
                    e8:ee:59:61:6d:f3:7f:26:14:82:19:90:f4:65:21:
                    68:22:45:58:5a:2e:d4:94:31:a7:13:2c:27:0f:07:
                    26:9a:77:dc:47:9a:d7:04:18:94:bd:09:e3:fc:fa:
                    ef:44:61:f0:b6:c6:65:37:95:8e:c5:67:86:7f:cc:
                    58:e7:e8:43:de:ee:cb:de:ad:68:00:95:f4:cd:21:
                    e7:db:33:09:c1:6d:6b:53:eb:8d:f3:53:cc:7a:a3:
                    f0:86:bb:0f:2c:3f:94:11:d5:dd:52:44:96:c1:97:
                    4a:d3:ca:48:40:b5:67:95:3d:c6:58:44:ac:6d:a3:
                    2f:a4:60:eb:72:48:b8:1d:cb:3d:6b:0a:b0:bf:3d:
                    42:68:cc:7d:29:78:29:9e:3d:ec:16:ae:84:98:31:
                    fe:ce:b2:b5:f7:ac:89:e8:df:c7:f1:ad:86:38:22:
                    fc:24:66:56:cc:5f:09:d8:23:eb:d2:67:96:b1:67:
                    de:f6:ae:bb:8e:db:88:a9:39:fc:9c:82:35:8b:b8:
                    49:54:b4:5f:78:5b:94:c3:4f:9f:bc:bf:0b:06:fc:
                    04:65
                Exponent: 65537 (0x10001)
        X509v3 extensions:
            X509v3 Subject Key Identifier: 
                D1:6E:9D:B4:88:56:98:C2:B2:A3:45:F5:95:3E:49:A0:70:45:13:EA
            X509v3 Authority Key Identifier: 
                keyid:3C:E2:AD:12:A1:C0:96:C8:53:4A:6B:B2:49:5C:5A:A6:1E:A9:19:EC

            Authority Information Access: 
                CA Issuers - URI:http://url-for-aia/I2.cer

            X509v3 CRL Distribution Points: 

                Full Name:
                  URI:http://url-for-crl/I2.crl

            X509v3 Key Usage: critical
                Digital Signature, Key Encipherment
            X509v3 Extended Key Usage: 
                TLS Web Server Authentication, TLS Web Client Authentication
    Signature Algorithm: sha256WithRSAEncryption
         2f:89:77:91:17:bb:d7:b6:c1:89:29:bd:a6:cc:c1:14:8d:32:
         1d:87:57:08:0a:0f:02:16:80:c5:c5:e6:e1:11:fb:ed:eb:17:
         67:92:28:70:10:06:b5:7e:46:1c:a3:cf:dc:a8:01:47:51:bf:
         f3:d3:ef:ed:04:bd:ff:7d:30:18:35:df:11:56:f2:a8:c2:f5:
         c0:70:37:5b:8e:ec:63:e6:64:1c:81:a1:a1:62:40:a4:e9:95:
         ef:8f:3e:31:8f:b6:03:28:5b:c5:fa:ab:af:e7:9f:3f:ca:f3:
         fd:2e:68:26:c4:8f:df:e4:ca:33:8a:47:d4:cf:f1:2a:de:11:
         bb:3a:5d:db:88:ef:42:ed:ff:af:fe:fc:b8:e6:0d:cf:91:9a:
         a0:09:f8:45:53:85:be:53:a5:9f:63:8f:9b:8e:70:d8:a7:e9:
         9d:66:17:4c:cb:85:f7:26:b2:3a:10:64:f2:81:b6:c2:57:2f:
         65:37:58:64:f2:20:ea:0c:8a:a6:6c:8f:8d:c6:4d:1e:c5:2f:
         62:53:04:8d:ce:a2:f1:8d:71:6f:f3:30:16:c4:72:2e:67:33:
         e5:fa:84:0e:88:ae:49:51:c4:20:c0:d8:87:20:5b:a8:e5:71:
         e2:06:8f:2f:50:29:7b:5b:6b:32:95:c9:55:0d:e5:a0:71:77:
         d0:47:ed:9d
-----BEGIN CERTIFICATE-----
MIIDfTCCAmWgAwIBAgIUe+YnQwjTk3WODqwgDv2NgRMa7+EwDQYJKoZIhvcNAQEL
BQAwDTELMAkGA1UEAwwCSTIwHhcNMjAxMTAzMTIwMDAwWhcNMjExMTAzMTIwMDAw
WjAMMQowCAYDVQQDDAFEMIIBIjANBgkqhkiG9w0BAQEFAAOCAQ8AMIIBCgKCAQEA
wq4HSjXO6ia/udSsuMJLQMeZ4lLVJIqDGjH93bTsuYqQZ9l/0+p/ipbWq6Xo7llh
bfN/JhSCGZD0ZSFoIkVYWi7UlDGnEywnDwcmmnfcR5rXBBiUvQnj/PrvRGHwtsZl
N5WOxWeGf8xY5+hD3u7L3q1oAJX0zSHn2zMJwW1rU+uN81PMeqPwhrsPLD+UEdXd
UkSWwZdK08pIQLVnlT3GWESsbaMvpGDrcki4Hcs9awqwvz1CaMx9KXgpnj3sFq6E
mDH+zrK196yJ6N/H8a2GOCL8JGZWzF8J2CPr0meWsWfe9q67jtuIqTn8nII1i7hJ
VLRfeFuUw0+fvL8LBvwEZQIDAQABo4HVMIHSMB0GA1UdDgQWBBTRbp20iFaYwrKj
RfWVPkmgcEUT6jAfBgNVHSMEGDAWgBQ84q0SocCWyFNKa7JJXFqmHqkZ7DA1Bggr
BgEFBQcBAQQpMCcwJQYIKwYBBQUHMAKGGWh0dHA6Ly91cmwtZm9yLWFpYS9JMi5j
ZXIwKgYDVR0fBCMwITAfoB2gG4YZaHR0cDovL3VybC1mb3ItY3JsL0kyLmNybDAO
BgNVHQ8BAf8EBAMCBaAwHQYDVR0lBBYwFAYIKwYBBQUHAwEGCCsGAQUFBwMCMA0G
CSqGSIb3DQEBCwUAA4IBAQAviXeRF7vXtsGJKb2mzMEUjTIdh1cICg8CFoDFxebh
Efvt6xdnkihwEAa1fkYco8/cqAFHUb/z0+/tBL3/fTAYNd8RVvKowvXAcDdbjuxj
5mQcgaGhYkCk6ZXvjz4xj7YDKFvF+quv558/yvP9LmgmxI/f5MozikfUz/Eq3hG7
Ol3biO9C7f+v/vy45g3PkZqgCfhFU4W+U6WfY4+bjnDYp+mdZhdMy4X3JrI6EGTy
gbbCVy9lN1hk8iDqDIqmbI+Nxk0exS9iUwSNzqLxjXFv8zAWxHIuZzPl+oQOiK5J
UcQgwNiHIFuo5XHiBo8vUCl7W2sylclVDeWgcXfQR+2d
-----END CERTIFICATE-----
