Generated by ./generate-certs.py.
Refer to generator script docstring for details.
Certificate:
    Data:
        Version: 3 (0x2)
        Serial Number:
            47:53:2a:a4:de:8f:dd:a0:ab:98:ed:1f:0d:77:1c:7b:62:99:d5:17
        Signature Algorithm: sha256WithRSAEncryption
        Issuer: CN=I3
        Validity
            Not Before: Nov  3 12:00:00 2020 GMT
            Not After : Nov  3 12:00:00 2021 GMT
        Subject: CN=E1
        Subject Public Key Info:
            Public Key Algorithm: rsaEncryption
                RSA Public-Key: (2048 bit)
                Modulus:
                    00:ae:91:6b:78:fb:33:11:82:bb:52:ce:22:b5:28:
                    a4:c1:bb:17:65:49:6f:85:08:98:3f:2b:e1:b6:d5:
                    43:42:5c:9f:30:b5:91:9c:28:6a:66:13:62:b2:cf:
                    01:90:1b:0c:c6:58:81:9b:78:f6:77:12:e2:1a:32:
                    9f:a9:f3:d0:59:56:95:8b:bf:6b:b8:39:d5:77:04:
                    46:66:49:dd:1e:65:11:8d:51:a7:b5:25:d1:d0:25:
                    73:00:27:98:3a:02:31:90:86:cf:a8:53:dd:10:fc:
                    a5:f6:29:85:cd:ea:c9:d9:08:7b:58:87:c3:6a:72:
                    f2:17:7d:e7:e2:be:f7:88:c8:79:b5:29:43:2e:9a:
                    e8:3c:e0:0b:42:47:c2:0e:3e:b1:6f:2e:a9:78:f0:
                    33:0c:b1:b9:67:3c:3f:ac:47:14:33:1d:2a:5a:37:
                    7d:24:7f:ca:a7:4d:7c:a9:28:82:86:3b:ab:6f:d2:
                    65:6e:e3:cc:f6:7a:96:65:81:7c:e9:8d:64:46:45:
                    46:fc:f4:9f:6f:67:f8:9a:2b:df:cc:a9:3a:de:31:
                    13:a9:08:99:d1:fd:44:99:be:28:cd:74:bc:84:58:
                    f5:d9:df:bd:f5:2b:a9:bb:ec:f3:50:e2:75:bb:19:
                    da:d4:f9:89:55:0f:33:1f:5e:ec:48:1d:e0:91:2d:
                    83:a1
                Exponent: 65537 (0x10001)
        X509v3 extensions:
            X509v3 Subject Key Identifier: 
                7B:31:A7:9B:6B:7F:0F:2F:2E:F1:FC:54:09:FB:1A:5F:66:8D:EC:8E
            X509v3 Authority Key Identifier: 
                keyid:02:D2:01:6B:5B:63:DC:4E:54:01:08:CD:A7:27:A0:85:29:78:E1:D3

            Authority Information Access: 
                CA Issuers - URI:http://url-for-aia/I3.cer

            X509v3 CRL Distribution Points: 

                Full Name:
                  URI:http://url-for-crl/I3.crl

            X509v3 Key Usage: critical
                Digital Signature, Key Encipherment
            X509v3 Extended Key Usage: 
                TLS Web Server Authentication, TLS Web Client Authentication
    Signature Algorithm: sha256WithRSAEncryption
         46:4d:39:4f:27:a0:0f:2e:5b:27:3e:35:69:0d:a2:bf:9b:5c:
         20:80:79:3d:be:68:e9:e5:dc:55:e4:77:1b:5e:b6:6a:ea:d3:
         20:50:c4:a1:4c:5d:2f:ca:00:a7:6b:d9:c0:70:9d:2c:81:85:
         5c:57:bd:49:42:92:1a:9f:8f:5a:92:e7:f5:36:aa:a8:26:0d:
         03:f9:92:da:80:2a:ba:a6:e5:77:c4:b7:34:f6:e6:7a:d7:f4:
         39:21:7b:24:b1:83:e2:1b:9e:8e:5f:fe:75:94:66:1c:ad:2d:
         af:3b:bc:4d:79:e0:5a:47:8e:c8:2d:20:0c:9e:64:6e:10:b1:
         8f:61:35:ce:9b:e7:26:11:38:06:db:c8:33:9a:13:ea:cd:46:
         52:65:00:ec:c5:96:a0:d8:57:46:5c:b7:79:11:44:38:6e:63:
         f0:0c:c7:8c:d5:e6:c8:f9:07:17:13:3f:fd:71:c1:51:9c:8a:
         2a:dc:7b:07:aa:78:40:06:48:66:40:f2:75:63:a1:38:42:68:
         b7:d8:c9:97:d1:8e:00:4d:7b:22:d0:f1:3f:6b:5e:81:7e:f9:
         60:c9:3f:f1:f7:9a:50:eb:e2:fa:43:59:9a:6b:5f:d4:61:8a:
         64:7a:cd:d2:3c:9c:02:57:fa:d2:49:9a:83:af:4c:a0:5e:25:
         c5:82:59:84
-----BEGIN CERTIFICATE-----
MIIDfjCCAmagAwIBAgIUR1MqpN6P3aCrmO0fDXcce2KZ1RcwDQYJKoZIhvcNAQEL
BQAwDTELMAkGA1UEAwwCSTMwHhcNMjAxMTAzMTIwMDAwWhcNMjExMTAzMTIwMDAw
WjANMQswCQYDVQQDDAJFMTCCASIwDQYJKoZIhvcNAQEBBQADggEPADCCAQoCggEB
AK6Ra3j7MxGCu1LOIrUopMG7F2VJb4UImD8r4bbVQ0JcnzC1kZwoamYTYrLPAZAb
DMZYgZt49ncS4hoyn6nz0FlWlYu/a7g51XcERmZJ3R5lEY1Rp7Ul0dAlcwAnmDoC
MZCGz6hT3RD8pfYphc3qydkIe1iHw2py8hd95+K+94jIebUpQy6a6DzgC0JHwg4+
sW8uqXjwMwyxuWc8P6xHFDMdKlo3fSR/yqdNfKkogoY7q2/SZW7jzPZ6lmWBfOmN
ZEZFRvz0n29n+Jor38ypOt4xE6kImdH9RJm+KM10vIRY9dnfvfUrqbvs81DidbsZ
2tT5iVUPMx9e7Egd4JEtg6ECAwEAAaOB1TCB0jAdBgNVHQ4EFgQUezGnm2t/Dy8u
8fxUCfsaX2aN7I4wHwYDVR0jBBgwFoAUAtIBa1tj3E5UAQjNpyeghSl44dMwNQYI
KwYBBQUHAQEEKTAnMCUGCCsGAQUFBzAChhlodHRwOi8vdXJsLWZvci1haWEvSTMu
Y2VyMCoGA1UdHwQjMCEwH6AdoBuGGWh0dHA6Ly91cmwtZm9yLWNybC9JMy5jcmww
DgYDVR0PAQH/BAQDAgWgMB0GA1UdJQQWMBQGCCsGAQUFBwMBBggrBgEFBQcDAjAN
BgkqhkiG9w0BAQsFAAOCAQEARk05TyegDy5bJz41aQ2iv5tcIIB5Pb5o6eXcVeR3
G162aurTIFDEoUxdL8oAp2vZwHCdLIGFXFe9SUKSGp+PWpLn9TaqqCYNA/mS2oAq
uqbld8S3NPbmetf0OSF7JLGD4huejl/+dZRmHK0trzu8TXngWkeOyC0gDJ5kbhCx
j2E1zpvnJhE4BtvIM5oT6s1GUmUA7MWWoNhXRly3eRFEOG5j8AzHjNXmyPkHFxM/
/XHBUZyKKtx7B6p4QAZIZkDydWOhOEJot9jJl9GOAE17ItDxP2tegX75YMk/8fea
UOvi+kNZmmtf1GGKZHrN0jycAlf60kmag69MoF4lxYJZhA==
-----END CERTIFICATE-----
