Generated by ./generate-certs.py.
Refer to generator script docstring for details.
Certificate:
    Data:
        Version: 3 (0x2)
        Serial Number:
            47:53:2a:a4:de:8f:dd:a0:ab:98:ed:1f:0d:77:1c:7b:62:99:d5:18
        Signature Algorithm: sha256WithRSAEncryption
        Issuer: CN=I3
        Validity
            Not Before: Nov  3 12:00:00 2020 GMT
            Not After : Nov  3 12:00:00 2021 GMT
        Subject: CN=E2
        Subject Public Key Info:
            Public Key Algorithm: rsaEncryption
                RSA Public-Key: (2048 bit)
                Modulus:
                    00:cd:3f:ae:a0:40:34:21:a1:4f:e4:72:59:5f:97:
                    23:a3:bd:f1:64:c4:c5:9d:73:a6:61:bb:68:12:30:
                    97:33:a1:86:4a:a3:bc:e7:9e:43:3a:de:be:06:16:
                    6e:c0:5c:fa:9e:e4:ed:b9:43:1a:e2:58:0c:b9:92:
                    8f:c3:d3:2b:59:c4:92:c0:32:db:3b:40:3f:b5:5a:
                    21:a4:72:18:fa:79:ae:8b:9e:2a:2d:f0:ed:20:0b:
                    a0:72:af:8c:01:ff:f3:13:83:4d:8a:14:7e:67:4e:
                    f7:52:40:f1:e9:69:b8:46:51:5b:1f:e9:3e:34:f0:
                    87:9a:f2:a4:c4:24:34:ca:b9:52:f4:8b:4b:16:bd:
                    db:be:27:1d:1e:32:71:7c:a3:2c:8a:e5:44:d0:31:
                    21:39:fc:56:e6:c7:bd:2f:36:f7:ef:b4:36:3e:a2:
                    35:2e:65:3b:4a:ac:30:ae:47:57:49:58:e4:f1:e6:
                    43:53:d4:ec:cf:3a:46:ed:19:00:9f:d9:fa:e2:08:
                    ca:20:93:d7:11:36:4a:91:89:34:d0:c7:11:11:99:
                    4d:3f:8d:c7:e3:9a:90:57:ee:0f:2b:a0:ea:c7:54:
                    74:1b:39:71:2e:6b:4a:c4:bc:79:0c:2b:cb:15:30:
                    06:e8:ac:8a:74:d3:46:72:82:ff:5a:bc:52:a2:a6:
                    e6:f3
                Exponent: 65537 (0x10001)
        X509v3 extensions:
            X509v3 Subject Key Identifier: 
                EF:94:D6:BF:45:A2:19:EC:07:A8:F7:DC:48:48:D0:A3:9C:FE:C8:84
            X509v3 Authority Key Identifier: 
                keyid:40:F8:36:2C:4C:E3:28:99:C2:3E:78:F2:EA:68:AB:4F:01:7C:FC:28

            Authority Information Access: 
                CA Issuers - URI:http://url-for-aia/I3.cer

            X509v3 CRL Distribution Points: 

                Full Name:
                  URI:http://url-for-crl/I3.crl

            X509v3 Key Usage: critical
                Digital Signature, Key Encipherment
            X509v3 Extended Key Usage: 
                TLS Web Server Authentication, TLS Web Client Authentication
    Signature Algorithm: sha256WithRSAEncryption
         10:5f:3b:b8:c6:f3:ac:d3:d1:8c:90:8d:b0:9b:f5:df:32:22:
         48:e3:ca:95:3f:09:79:fd:aa:05:ae:3f:39:d7:d7:eb:b0:68:
         69:a1:87:9e:c7:74:8c:41:24:3e:8a:dd:b6:05:9a:a7:ed:e5:
         b5:1f:31:d1:26:4b:88:eb:4a:cb:db:89:67:3d:06:c0:1d:99:
         38:e8:7e:53:f8:ba:fc:6d:bd:08:00:ef:d8:20:58:fa:7a:6b:
         62:e0:74:c5:42:0b:26:f0:78:3d:f1:fe:aa:ef:ad:ae:99:45:
         e2:5f:11:2c:7e:8d:f8:58:ad:9e:83:85:ab:0b:59:a0:18:4a:
         d9:e5:77:e9:86:74:e0:02:5f:34:1b:0c:bc:ce:c7:a6:17:0a:
         22:24:c0:1c:90:bf:ac:94:34:9e:b2:2c:b1:a5:79:62:47:36:
         87:08:77:7c:11:26:a1:94:e9:fc:15:82:79:b8:75:d4:e3:63:
         6c:16:41:12:ce:e6:97:16:e2:90:3c:38:14:92:a5:5a:d3:73:
         31:3a:37:a0:ce:b5:21:64:fc:f1:f9:f4:9a:f7:d0:e7:89:d5:
         3f:55:27:e9:fc:ef:81:2f:c7:67:71:c7:fe:68:97:a7:af:93:
         32:96:4a:5d:d5:c5:62:f9:4d:c7:8d:1e:ea:21:23:4d:f4:51:
         95:b5:9e:2d
-----BEGIN CERTIFICATE-----
MIIDfjCCAmagAwIBAgIUR1MqpN6P3aCrmO0fDXcce2KZ1RgwDQYJKoZIhvcNAQEL
BQAwDTELMAkGA1UEAwwCSTMwHhcNMjAxMTAzMTIwMDAwWhcNMjExMTAzMTIwMDAw
WjANMQswCQYDVQQDDAJFMjCCASIwDQYJKoZIhvcNAQEBBQADggEPADCCAQoCggEB
AM0/rqBANCGhT+RyWV+XI6O98WTExZ1zpmG7aBIwlzOhhkqjvOeeQzrevgYWbsBc
+p7k7blDGuJYDLmSj8PTK1nEksAy2ztAP7VaIaRyGPp5roueKi3w7SALoHKvjAH/
8xODTYoUfmdO91JA8elpuEZRWx/pPjTwh5rypMQkNMq5UvSLSxa9274nHR4ycXyj
LIrlRNAxITn8VubHvS829++0Nj6iNS5lO0qsMK5HV0lY5PHmQ1PU7M86Ru0ZAJ/Z
+uIIyiCT1xE2SpGJNNDHERGZTT+Nx+OakFfuDyug6sdUdBs5cS5rSsS8eQwryxUw
BuisinTTRnKC/1q8UqKm5vMCAwEAAaOB1TCB0jAdBgNVHQ4EFgQU75TWv0WiGewH
qPfcSEjQo5z+yIQwHwYDVR0jBBgwFoAUQPg2LEzjKJnCPnjy6mirTwF8/CgwNQYI
KwYBBQUHAQEEKTAnMCUGCCsGAQUFBzAChhlodHRwOi8vdXJsLWZvci1haWEvSTMu
Y2VyMCoGA1UdHwQjMCEwH6AdoBuGGWh0dHA6Ly91cmwtZm9yLWNybC9JMy5jcmww
DgYDVR0PAQH/BAQDAgWgMB0GA1UdJQQWMBQGCCsGAQUFBwMBBggrBgEFBQcDAjAN
BgkqhkiG9w0BAQsFAAOCAQEAEF87uMbzrNPRjJCNsJv13zIiSOPKlT8Jef2qBa4/
OdfX67BoaaGHnsd0jEEkPordtgWap+3ltR8x0SZLiOtKy9uJZz0GwB2ZOOh+U/i6
/G29CADv2CBY+nprYuB0xUILJvB4PfH+qu+trplF4l8RLH6N+FitnoOFqwtZoBhK
2eV36YZ04AJfNBsMvM7HphcKIiTAHJC/rJQ0nrIssaV5Ykc2hwh3fBEmoZTp/BWC
ebh11ONjbBZBEs7mlxbikDw4FJKlWtNzMTo3oM61IWT88fn0mvfQ54nVP1Un6fzv
gS/HZ3HH/miXp6+TMpZKXdXFYvlNx40e6iEjTfRRlbWeLQ==
-----END CERTIFICATE-----
