Generated by ./generate-certs.py.
Refer to generator script docstring for details.
Certificate:
    Data:
        Version: 3 (0x2)
        Serial Number:
            3e:cf:94:c3:ef:a3:21:ee:42:87:34:c7:d6:d6:e1:8c:da:71:34:16
        Signature Algorithm: sha256WithRSAEncryption
        Issuer: CN=Root
        Validity
            Not Before: Nov  3 12:00:00 2020 GMT
            Not After : Nov  3 12:00:00 2021 GMT
        Subject: CN=I1
        Subject Public Key Info:
            Public Key Algorithm: rsaEncryption
                RSA Public-Key: (2048 bit)
                Modulus:
                    00:b4:6e:db:61:6f:ec:1f:d1:6e:3d:fa:12:27:3b:
                    8c:f7:8c:c7:a7:7d:0d:5e:b5:2a:02:8d:97:29:9b:
                    7a:64:bd:0d:56:9b:1f:6e:71:ab:d3:af:10:37:90:
                    2b:3a:f0:ee:55:43:fd:50:ea:46:c9:d8:2a:a7:68:
                    7a:10:74:a1:cb:fc:b5:c4:b6:ee:67:b4:8b:f5:8d:
                    12:b5:3c:d9:0c:ab:e5:37:72:19:be:b2:9f:b9:65:
                    78:c1:d1:4e:88:86:10:57:aa:e5:0a:ef:1a:41:1d:
                    0a:55:49:34:5e:ae:f7:4e:29:07:c2:34:1f:79:0d:
                    f8:b7:26:dc:9b:de:a5:00:5c:0e:a3:53:a8:73:3f:
                    fd:df:ab:18:03:bb:0a:d6:dc:f7:3e:0b:28:c8:61:
                    51:71:68:48:fa:5c:87:54:82:19:20:d9:28:2d:fa:
                    33:89:4c:5b:dc:a6:d9:49:44:45:c6:af:3d:1a:f9:
                    28:45:10:58:a7:27:67:75:7b:8b:58:92:80:a3:ef:
                    81:ae:95:27:97:2b:5b:d3:dd:ea:7a:b7:ff:1c:d1:
                    de:c6:df:ea:d6:19:e0:fe:4f:96:d6:59:cf:85:52:
                    71:76:62:ec:fb:97:74:e3:5f:b5:29:62:cd:89:be:
                    03:30:5b:5a:35:5d:08:a2:3d:5f:b3:8b:60:0b:5e:
                    42:e7
                Exponent: 65537 (0x10001)
        X509v3 extensions:
            X509v3 Subject Key Identifier: 
                1B:26:D0:C4:43:00:72:E2:A4:AB:01:D1:A4:68:D5:E5:B2:1E:9C:0D
            X509v3 Authority Key Identifier: 
                keyid:5F:CF:54:BD:7C:38:9B:5F:A1:AC:FE:A6:6E:7A:83:80:A6:4B:F9:BF

            Authority Information Access: 
                CA Issuers - URI:http://url-for-aia/Root.cer

            X509v3 CRL Distribution Points: 

                Full Name:
                  URI:http://url-for-crl/Root.crl

            X509v3 Key Usage: critical
                Certificate Sign, CRL Sign
            X509v3 Basic Constraints: critical
                CA:TRUE
    Signature Algorithm: sha256WithRSAEncryption
         72:e2:fa:0a:11:c4:bf:f2:60:f4:98:28:72:32:a4:1b:11:d5:
         70:df:06:93:7d:7e:00:44:89:3b:d8:cf:c1:bd:89:2b:51:d1:
         74:c6:38:c9:e6:00:20:ec:9a:2d:0b:f4:76:26:6e:24:6d:bc:
         6e:30:6c:85:3b:ac:ba:df:fc:06:ab:0f:80:bc:e8:6d:2e:c7:
         ba:e8:ce:23:13:74:6f:75:76:c7:ac:9f:20:3f:25:1f:4d:db:
         c1:b0:4e:42:49:1b:3d:97:0a:89:6f:0a:91:27:56:58:1f:cf:
         2c:d5:80:35:52:d9:e5:53:7d:a3:69:09:38:cd:f2:81:a1:60:
         0f:6a:67:08:c8:d2:9b:3b:ba:39:95:92:c5:a1:71:5d:a4:a4:
         37:4c:2e:a4:b9:67:01:55:74:91:b4:8f:6f:c3:5d:29:f0:0a:
         68:92:15:5b:bd:17:4f:ac:89:bd:13:e0:ff:d3:96:71:d1:e2:
         77:30:e0:aa:4f:51:69:f6:02:43:1f:65:90:56:88:db:c0:70:
         a0:0b:be:a2:87:e8:b8:98:7f:96:46:16:e2:cb:89:9d:ba:b5:
         64:7f:0d:c5:3d:6f:70:66:42:07:2a:95:83:10:c1:75:27:c7:
         78:04:2c:87:8b:0d:95:ad:5d:0c:ff:a7:1e:c2:85:19:03:98:
         e9:42:50:fd
-----BEGIN CERTIFICATE-----
MIIDdjCCAl6gAwIBAgIUPs+Uw++jIe5ChzTH1tbhjNpxNBYwDQYJKoZIhvcNAQEL
BQAwDzENMAsGA1UEAwwEUm9vdDAeFw0yMDExMDMxMjAwMDBaFw0yMTExMDMxMjAw
MDBaMA0xCzAJBgNVBAMMAkkxMIIBIjANBgkqhkiG9w0BAQEFAAOCAQ8AMIIBCgKC
AQEAtG7bYW/sH9FuPfoSJzuM94zHp30NXrUqAo2XKZt6ZL0NVpsfbnGr068QN5Ar
OvDuVUP9UOpGydgqp2h6EHShy/y1xLbuZ7SL9Y0StTzZDKvlN3IZvrKfuWV4wdFO
iIYQV6rlCu8aQR0KVUk0Xq73TikHwjQfeQ34tybcm96lAFwOo1Oocz/936sYA7sK
1tz3PgsoyGFRcWhI+lyHVIIZINkoLfoziUxb3KbZSURFxq89GvkoRRBYpydndXuL
WJKAo++BrpUnlytb093qerf/HNHext/q1hng/k+W1lnPhVJxdmLs+5d041+1KWLN
ib4DMFtaNV0Ioj1fs4tgC15C5wIDAQABo4HLMIHIMB0GA1UdDgQWBBQbJtDEQwBy
4qSrAdGkaNXlsh6cDTAfBgNVHSMEGDAWgBRfz1S9fDibX6Gs/qZueoOApkv5vzA3
BggrBgEFBQcBAQQrMCkwJwYIKwYBBQUHMAKGG2h0dHA6Ly91cmwtZm9yLWFpYS9S
b290LmNlcjAsBgNVHR8EJTAjMCGgH6AdhhtodHRwOi8vdXJsLWZvci1jcmwvUm9v
dC5jcmwwDgYDVR0PAQH/BAQDAgEGMA8GA1UdEwEB/wQFMAMBAf8wDQYJKoZIhvcN
AQELBQADggEBAHLi+goRxL/yYPSYKHIypBsR1XDfBpN9fgBEiTvYz8G9iStR0XTG
OMnmACDsmi0L9HYmbiRtvG4wbIU7rLrf/AarD4C86G0ux7roziMTdG91dsesnyA/
JR9N28GwTkJJGz2XColvCpEnVlgfzyzVgDVS2eVTfaNpCTjN8oGhYA9qZwjI0ps7
ujmVksWhcV2kpDdMLqS5ZwFVdJG0j2/DXSnwCmiSFVu9F0+sib0T4P/TlnHR4ncw
4KpPUWn2AkMfZZBWiNvAcKALvqKH6LiYf5ZGFuLLiZ26tWR/DcU9b3BmQgcqlYMQ
wXUnx3gELIeLDZWtXQz/px7ChRkDmOlCUP0=
-----END CERTIFICATE-----
