Generated by ./generate-certs.py.
Refer to generator script docstring for details.
Certificate:
    Data:
        Version: 3 (0x2)
        Serial Number:
            3e:cf:94:c3:ef:a3:21:ee:42:87:34:c7:d6:d6:e1:8c:da:71:34:17
        Signature Algorithm: sha256WithRSAEncryption
        Issuer: CN=Root
        Validity
            Not Before: Nov  3 12:00:00 2020 GMT
            Not After : Nov  3 12:00:00 2021 GMT
        Subject: CN=i1
        Subject Public Key Info:
            Public Key Algorithm: rsaEncryption
                RSA Public-Key: (2048 bit)
                Modulus:
                    00:c9:e4:64:23:d2:71:36:4d:70:84:36:ec:bb:05:
                    57:35:56:0c:a0:61:1f:64:fc:87:35:4b:cd:3d:17:
                    9d:6a:f9:d5:ef:8f:99:30:36:db:97:e0:80:72:d2:
                    0e:30:42:f4:c6:67:3c:be:dc:8c:05:02:13:e2:9b:
                    ab:a0:45:6e:78:18:4f:34:ae:ee:5d:4e:bb:47:b1:
                    af:87:fc:d4:99:17:42:cb:06:b4:c5:5f:e1:a0:0c:
                    79:5f:f2:b4:ee:74:52:43:6f:6e:83:4e:00:e0:c9:
                    66:e1:ea:98:89:6d:85:23:1b:ed:2b:da:af:c5:6b:
                    42:35:48:25:f9:a7:2a:54:90:f8:f1:b1:d4:93:61:
                    c8:c3:0c:39:99:dd:c4:a6:b8:2e:cf:92:57:14:8c:
                    b9:45:ba:fb:76:40:d4:d8:fe:44:54:17:76:ba:e2:
                    d0:f2:24:64:14:12:65:a7:be:c6:1a:d7:48:b9:4a:
                    93:5f:b1:b3:76:53:f8:ad:5f:d2:44:19:03:0f:f3:
                    af:99:ee:96:b5:85:ed:2a:ae:b8:41:90:5c:dd:e0:
                    19:0c:2a:71:ae:16:59:19:5d:3f:45:44:5e:4a:b3:
                    e0:86:ea:15:e2:fb:0c:b8:b9:6f:24:a0:c6:bc:fc:
                    f3:0c:02:f2:52:d8:34:fd:dc:8d:37:08:01:6a:f9:
                    c4:31
                Exponent: 65537 (0x10001)
        X509v3 extensions:
            X509v3 Subject Key Identifier: 
                E3:AC:1D:35:9E:1C:CC:C6:29:9F:37:59:41:C6:DA:C9:44:2C:B2:F3
            X509v3 Authority Key Identifier: 
                keyid:5F:CF:54:BD:7C:38:9B:5F:A1:AC:FE:A6:6E:7A:83:80:A6:4B:F9:BF

            Authority Information Access: 
                CA Issuers - URI:http://url-for-aia/Root.cer

            X509v3 CRL Distribution Points: 

                Full Name:
                  URI:http://url-for-crl/Root.crl

            X509v3 Key Usage: critical
                Certificate Sign, CRL Sign
            X509v3 Basic Constraints: critical
                CA:TRUE
    Signature Algorithm: sha256WithRSAEncryption
         84:94:cd:21:91:dc:01:e3:02:e4:7d:24:18:4b:64:38:91:55:
         1d:31:6c:62:1b:1d:6f:23:8a:f5:a0:3a:11:ea:1a:a7:38:ab:
         7b:e9:ee:9d:2d:e7:d9:3d:9b:ed:41:17:4f:c2:ec:50:45:2d:
         cc:09:d2:99:2d:ef:66:45:9c:24:5e:bc:90:ed:d9:51:a9:20:
         3e:31:e0:6f:55:9a:cd:18:96:04:7b:db:3c:2a:83:49:51:da:
         15:08:c2:27:e9:cd:8e:3c:c0:b1:fe:8e:19:99:15:9f:0d:7e:
         cc:6d:33:35:44:46:4b:e6:09:0b:5a:8a:b8:65:08:e0:1c:ee:
         ce:19:dc:cc:b5:55:2d:16:bd:fd:3b:9d:6d:da:56:48:42:d5:
         0f:6d:3e:3e:93:d0:3a:90:b1:74:9f:12:dd:54:57:0f:a3:1b:
         59:ed:9c:12:ac:cd:78:56:b8:d7:87:eb:15:16:8d:7f:b3:82:
         05:76:14:23:4d:2a:e6:02:cf:ab:22:96:97:35:dc:ba:04:08:
         81:47:8d:b2:48:6d:58:c1:d1:a9:ba:57:91:c4:43:aa:60:04:
         42:b5:d0:47:5c:6a:6d:d5:13:f3:dc:57:2e:d1:a4:0d:7a:42:
         f5:ca:94:05:f0:19:9c:26:24:f3:06:e9:9a:ef:4e:4a:e4:1d:
         12:df:65:e9
-----BEGIN CERTIFICATE-----
MIIDdjCCAl6gAwIBAgIUPs+Uw++jIe5ChzTH1tbhjNpxNBcwDQYJKoZIhvcNAQEL
BQAwDzENMAsGA1UEAwwEUm9vdDAeFw0yMDExMDMxMjAwMDBaFw0yMTExMDMxMjAw
MDBaMA0xCzAJBgNVBAMMAmkxMIIBIjANBgkqhkiG9w0BAQEFAAOCAQ8AMIIBCgKC
AQEAyeRkI9JxNk1whDbsuwVXNVYMoGEfZPyHNUvNPRedavnV74+ZMDbbl+CActIO
MEL0xmc8vtyMBQIT4puroEVueBhPNK7uXU67R7Gvh/zUmRdCywa0xV/hoAx5X/K0
7nRSQ29ug04A4Mlm4eqYiW2FIxvtK9qvxWtCNUgl+acqVJD48bHUk2HIwww5md3E
prguz5JXFIy5Rbr7dkDU2P5EVBd2uuLQ8iRkFBJlp77GGtdIuUqTX7GzdlP4rV/S
RBkDD/Ovme6WtYXtKq64QZBc3eAZDCpxrhZZGV0/RUReSrPghuoV4vsMuLlvJKDG
vPzzDALyUtg0/dyNNwgBavnEMQIDAQABo4HLMIHIMB0GA1UdDgQWBBTjrB01nhzM
ximfN1lBxtrJRCyy8zAfBgNVHSMEGDAWgBRfz1S9fDibX6Gs/qZueoOApkv5vzA3
BggrBgEFBQcBAQQrMCkwJwYIKwYBBQUHMAKGG2h0dHA6Ly91cmwtZm9yLWFpYS9S
b290LmNlcjAsBgNVHR8EJTAjMCGgH6AdhhtodHRwOi8vdXJsLWZvci1jcmwvUm9v
dC5jcmwwDgYDVR0PAQH/BAQDAgEGMA8GA1UdEwEB/wQFMAMBAf8wDQYJKoZIhvcN
AQELBQADggEBAISUzSGR3AHjAuR9JBhLZDiRVR0xbGIbHW8jivWgOhHqGqc4q3vp
7p0t59k9m+1BF0/C7FBFLcwJ0pkt72ZFnCRevJDt2VGpID4x4G9Vms0YlgR72zwq
g0lR2hUIwifpzY48wLH+jhmZFZ8NfsxtMzVERkvmCQtairhlCOAc7s4Z3My1VS0W
vf07nW3aVkhC1Q9tPj6T0DqQsXSfEt1UVw+jG1ntnBKszXhWuNeH6xUWjX+zggV2
FCNNKuYCz6silpc13LoECIFHjbJIbVjB0am6V5HEQ6pgBEK10Edcam3VE/PcVy7R
pA16QvXKlAXwGZwmJPMG6ZrvTkrkHRLfZek=
-----END CERTIFICATE-----
