Generated by ./generate-certs.py.
Refer to generator script docstring for details.
Certificate:
    Data:
        Version: 3 (0x2)
        Serial Number:
            3e:cf:94:c3:ef:a3:21:ee:42:87:34:c7:d6:d6:e1:8c:da:71:34:18
        Signature Algorithm: sha256WithRSAEncryption
        Issuer: CN=Root
        Validity
            Not Before: Nov  3 12:00:00 2020 GMT
            Not After : Nov  3 12:00:00 2021 GMT
        Subject: CN=I2
        Subject Public Key Info:
            Public Key Algorithm: rsaEncryption
                RSA Public-Key: (2048 bit)
                Modulus:
                    00:d1:69:29:58:fb:d8:7f:47:62:6f:d6:3f:4a:93:
                    d5:37:73:27:45:1d:e6:73:d5:7e:50:1b:e0:97:4a:
                    d9:69:90:68:7e:ab:26:f0:c5:2a:11:35:fd:cb:68:
                    cf:30:bd:b6:59:c5:d8:8b:0e:c8:19:c4:d7:61:d1:
                    64:60:41:12:6e:33:88:ac:b9:51:4f:0f:26:9f:4b:
                    71:a1:f8:b6:9d:bd:71:9f:37:4b:a6:db:a9:23:06:
                    f0:c3:22:b3:6b:b7:e5:e7:a1:fc:1f:29:48:4d:96:
                    a8:35:1e:0a:52:e5:c9:bd:eb:20:be:02:6b:fe:54:
                    ba:7c:98:20:45:f6:09:dc:64:5f:b3:11:ec:6b:46:
                    1e:ea:de:98:64:29:c2:98:c9:c2:e7:9c:23:85:74:
                    79:10:d1:b3:7b:c0:be:37:7c:eb:96:38:90:35:45:
                    f7:30:6f:40:8b:16:be:dd:0f:9d:8b:d4:b0:cb:e1:
                    41:6f:94:e7:e9:83:a5:a0:5a:4f:fd:cd:90:eb:c9:
                    63:b3:19:17:12:46:4a:63:48:93:44:2c:da:ea:8f:
                    6b:d7:28:28:5b:43:ee:82:2d:ce:0a:b9:35:6c:16:
                    0a:a8:0b:c2:12:b1:0e:32:ae:33:ec:3e:38:6d:74:
                    88:49:77:99:4f:78:59:96:f5:11:10:86:3b:be:2d:
                    d7:51
                Exponent: 65537 (0x10001)
        X509v3 extensions:
            X509v3 Subject Key Identifier: 
                3C:E2:AD:12:A1:C0:96:C8:53:4A:6B:B2:49:5C:5A:A6:1E:A9:19:EC
            X509v3 Authority Key Identifier: 
                keyid:5F:CF:54:BD:7C:38:9B:5F:A1:AC:FE:A6:6E:7A:83:80:A6:4B:F9:BF

            Authority Information Access: 
                CA Issuers - URI:http://url-for-aia/Root.cer

            X509v3 CRL Distribution Points: 

                Full Name:
                  URI:http://url-for-crl/Root.crl

            X509v3 Key Usage: critical
                Certificate Sign, CRL Sign
            X509v3 Basic Constraints: critical
                CA:TRUE
    Signature Algorithm: sha256WithRSAEncryption
         5c:25:b5:ec:a7:e4:d2:4d:f7:ef:c6:f0:ac:03:42:0e:3a:dc:
         d6:d1:32:83:cb:ed:55:b5:ed:44:8c:03:cd:7a:98:94:d4:da:
         8b:3c:ec:77:99:e7:08:ab:e4:5f:2f:ca:6b:be:0d:5e:96:55:
         56:b8:8a:b3:44:32:46:9a:6e:e3:98:55:1f:ab:3f:d7:03:27:
         2b:e1:cf:cb:1a:22:b3:3f:4e:c3:85:d7:61:ee:f3:04:38:ed:
         d9:b4:ef:26:c7:44:43:45:9d:71:1a:78:14:cf:c1:cc:7c:d2:
         20:7d:a8:39:74:18:b2:a9:82:4e:6c:29:7f:83:a9:e3:28:2d:
         f1:89:cf:37:ff:5f:ff:55:b4:49:47:60:d6:ad:30:46:be:32:
         c3:67:1e:7f:e9:d5:78:4a:b9:58:68:6c:2a:e5:26:49:58:b9:
         ff:0f:51:22:00:49:07:6d:26:c8:91:34:73:50:94:bd:83:80:
         24:58:83:4b:9c:77:22:e0:26:89:b1:76:a3:92:6f:40:87:fd:
         ef:8c:cd:2b:e6:65:4d:53:ac:93:d2:b7:23:c2:cd:14:d3:8e:
         25:17:f6:0c:77:a1:9e:d5:ef:f3:98:f6:c0:42:48:ed:7a:bc:
         05:d3:6c:2b:82:b7:f1:f6:69:40:2b:4d:85:9b:f8:8b:64:b6:
         27:71:c5:d2
-----BEGIN CERTIFICATE-----
MIIDdjCCAl6gAwIBAgIUPs+Uw++jIe5ChzTH1tbhjNpxNBgwDQYJKoZIhvcNAQEL
BQAwDzENMAsGA1UEAwwEUm9vdDAeFw0yMDExMDMxMjAwMDBaFw0yMTExMDMxMjAw
MDBaMA0xCzAJBgNVBAMMAkkyMIIBIjANBgkqhkiG9w0BAQEFAAOCAQ8AMIIBCgKC
AQEA0WkpWPvYf0dib9Y/SpPVN3MnRR3mc9V+UBvgl0rZaZBofqsm8MUqETX9y2jP
ML22WcXYiw7IGcTXYdFkYEESbjOIrLlRTw8mn0txofi2nb1xnzdLptupIwbwwyKz
a7fl56H8HylITZaoNR4KUuXJvesgvgJr/lS6fJggRfYJ3GRfsxHsa0Ye6t6YZCnC
mMnC55wjhXR5ENGze8C+N3zrljiQNUX3MG9Aixa+3Q+di9Swy+FBb5Tn6YOloFpP
/c2Q68ljsxkXEkZKY0iTRCza6o9r1ygoW0Pugi3OCrk1bBYKqAvCErEOMq4z7D44
bXSISXeZT3hZlvUREIY7vi3XUQIDAQABo4HLMIHIMB0GA1UdDgQWBBQ84q0SocCW
yFNKa7JJXFqmHqkZ7DAfBgNVHSMEGDAWgBRfz1S9fDibX6Gs/qZueoOApkv5vzA3
BggrBgEFBQcBAQQrMCkwJwYIKwYBBQUHMAKGG2h0dHA6Ly91cmwtZm9yLWFpYS9S
b290LmNlcjAsBgNVHR8EJTAjMCGgH6AdhhtodHRwOi8vdXJsLWZvci1jcmwvUm9v
dC5jcmwwDgYDVR0PAQH/BAQDAgEGMA8GA1UdEwEB/wQFMAMBAf8wDQYJKoZIhvcN
AQELBQADggEBAFwlteyn5NJN9+/G8KwDQg463NbRMoPL7VW17USMA816mJTU2os8
7HeZ5wir5F8vymu+DV6WVVa4irNEMkaabuOYVR+rP9cDJyvhz8saIrM/TsOF12Hu
8wQ47dm07ybHRENFnXEaeBTPwcx80iB9qDl0GLKpgk5sKX+DqeMoLfGJzzf/X/9V
tElHYNatMEa+MsNnHn/p1XhKuVhobCrlJklYuf8PUSIASQdtJsiRNHNQlL2DgCRY
g0ucdyLgJomxdqOSb0CH/e+MzSvmZU1TrJPStyPCzRTTjiUX9gx3oZ7V7/OY9sBC
SO16vAXTbCuCt/H2aUArTYWb+ItktidxxdI=
-----END CERTIFICATE-----
