Generated by ./generate-certs.py.
Refer to generator script docstring for details.
Certificate:
    Data:
        Version: 3 (0x2)
        Serial Number:
            3e:cf:94:c3:ef:a3:21:ee:42:87:34:c7:d6:d6:e1:8c:da:71:34:19
        Signature Algorithm: sha256WithRSAEncryption
        Issuer: CN=Root
        Validity
            Not Before: Nov  3 12:00:00 2020 GMT
            Not After : Nov  3 12:00:00 2021 GMT
        Subject: CN=I3
        Subject Public Key Info:
            Public Key Algorithm: rsaEncryption
                RSA Public-Key: (2048 bit)
                Modulus:
                    00:cc:ad:d0:52:c3:c3:db:22:c1:cf:d4:40:39:dc:
                    d1:75:c5:07:26:08:d7:99:df:06:dd:de:37:8c:94:
                    14:16:44:69:09:e7:5a:17:08:bf:d5:a2:ed:fd:d7:
                    e6:ae:bc:33:9c:42:4e:fb:20:5a:94:83:4f:60:71:
                    e8:b6:ff:68:78:c0:2f:09:05:cd:24:3e:f6:ee:f3:
                    8c:98:db:0a:15:98:1d:48:dc:ea:11:e7:0d:52:61:
                    0d:b4:d3:7a:55:40:bc:29:82:a0:1e:02:d3:00:ed:
                    9b:7a:a9:48:76:0d:37:a8:dd:40:f8:13:44:1e:1c:
                    3a:d5:db:ca:e7:40:d5:22:77:59:78:43:f5:b5:df:
                    d7:7e:db:73:2c:e6:73:7c:09:e1:a0:30:ed:8c:c1:
                    4e:7d:5d:4c:9b:3a:0f:13:33:a1:9f:3e:d8:06:50:
                    9e:0f:2f:59:d7:5b:7a:db:80:36:81:21:5b:7e:0b:
                    7d:c8:2d:8c:1c:1e:9f:c7:3b:b6:78:6e:97:40:b9:
                    55:04:1b:2b:a2:4b:7c:a1:6a:a6:46:c2:0d:70:07:
                    60:9b:e4:52:12:6a:f5:f9:40:44:0c:bd:35:f0:fd:
                    00:d7:dc:ba:9e:9e:ed:30:c4:c8:e8:8b:cd:4e:5c:
                    50:66:12:00:db:43:4f:d6:67:d6:4f:7f:68:57:55:
                    5f:f9
                Exponent: 65537 (0x10001)
        X509v3 extensions:
            X509v3 Subject Key Identifier: 
                02:D2:01:6B:5B:63:DC:4E:54:01:08:CD:A7:27:A0:85:29:78:E1:D3
            X509v3 Authority Key Identifier: 
                keyid:5F:CF:54:BD:7C:38:9B:5F:A1:AC:FE:A6:6E:7A:83:80:A6:4B:F9:BF

            Authority Information Access: 
                CA Issuers - URI:http://url-for-aia/Root.cer

            X509v3 CRL Distribution Points: 

                Full Name:
                  URI:http://url-for-crl/Root.crl

            X509v3 Key Usage: critical
                Certificate Sign, CRL Sign
            X509v3 Basic Constraints: critical
                CA:TRUE
    Signature Algorithm: sha256WithRSAEncryption
         49:aa:46:a3:20:60:5a:9b:b9:e4:2c:b3:b7:7a:fd:c1:2a:87:
         dd:43:be:ba:12:2a:c4:34:68:10:b8:97:7f:ce:e6:cf:1d:9d:
         4f:af:e6:53:3a:7b:85:a6:95:e3:1c:c8:c9:13:c5:a0:cb:22:
         08:09:c8:0d:e1:84:75:23:57:01:2d:db:24:7b:db:95:84:60:
         4b:46:ba:c8:39:d4:1f:8c:7b:32:7a:95:7a:f3:e5:dc:2e:4a:
         37:3c:9f:c6:45:91:5c:7d:67:5c:ae:53:e7:ed:ca:80:59:30:
         f1:85:a6:51:0e:a8:11:91:aa:ba:04:11:92:ec:d2:4f:bf:af:
         51:4d:c2:1e:0d:8a:98:a8:61:f4:e6:da:70:28:1b:b5:03:d6:
         53:7c:27:13:e1:29:03:7a:25:86:0d:b1:85:59:80:98:42:5e:
         79:54:14:0d:1c:7f:74:33:f9:21:b2:27:5e:b5:b4:92:f1:cb:
         a5:44:20:9e:50:96:36:09:8d:28:db:f0:51:02:67:24:0a:b8:
         a8:29:a2:5a:24:e1:b4:b7:ca:41:eb:b5:79:5f:13:7e:cc:7f:
         b4:1a:0d:ad:64:06:82:34:00:48:2a:c8:f9:64:3b:38:c5:92:
         b0:c8:4c:82:8e:e9:00:6b:46:fa:de:fe:d0:45:a7:5b:55:e6:
         70:52:f9:58
-----BEGIN CERTIFICATE-----
MIIDdjCCAl6gAwIBAgIUPs+Uw++jIe5ChzTH1tbhjNpxNBkwDQYJKoZIhvcNAQEL
BQAwDzENMAsGA1UEAwwEUm9vdDAeFw0yMDExMDMxMjAwMDBaFw0yMTExMDMxMjAw
MDBaMA0xCzAJBgNVBAMMAkkzMIIBIjANBgkqhkiG9w0BAQEFAAOCAQ8AMIIBCgKC
AQEAzK3QUsPD2yLBz9RAOdzRdcUHJgjXmd8G3d43jJQUFkRpCedaFwi/1aLt/dfm
rrwznEJO+yBalINPYHHotv9oeMAvCQXNJD727vOMmNsKFZgdSNzqEecNUmENtNN6
VUC8KYKgHgLTAO2beqlIdg03qN1A+BNEHhw61dvK50DVIndZeEP1td/XfttzLOZz
fAnhoDDtjMFOfV1MmzoPEzOhnz7YBlCeDy9Z11t624A2gSFbfgt9yC2MHB6fxzu2
eG6XQLlVBBsrokt8oWqmRsINcAdgm+RSEmr1+UBEDL018P0A19y6np7tMMTI6IvN
TlxQZhIA20NP1mfWT39oV1Vf+QIDAQABo4HLMIHIMB0GA1UdDgQWBBQC0gFrW2Pc
TlQBCM2nJ6CFKXjh0zAfBgNVHSMEGDAWgBRfz1S9fDibX6Gs/qZueoOApkv5vzA3
BggrBgEFBQcBAQQrMCkwJwYIKwYBBQUHMAKGG2h0dHA6Ly91cmwtZm9yLWFpYS9S
b290LmNlcjAsBgNVHR8EJTAjMCGgH6AdhhtodHRwOi8vdXJsLWZvci1jcmwvUm9v
dC5jcmwwDgYDVR0PAQH/BAQDAgEGMA8GA1UdEwEB/wQFMAMBAf8wDQYJKoZIhvcN
AQELBQADggEBAEmqRqMgYFqbueQss7d6/cEqh91DvroSKsQ0aBC4l3/O5s8dnU+v
5lM6e4WmleMcyMkTxaDLIggJyA3hhHUjVwEt2yR725WEYEtGusg51B+MezJ6lXrz
5dwuSjc8n8ZFkVx9Z1yuU+ftyoBZMPGFplEOqBGRqroEEZLs0k+/r1FNwh4Nipio
YfTm2nAoG7UD1lN8JxPhKQN6JYYNsYVZgJhCXnlUFA0cf3Qz+SGyJ161tJLxy6VE
IJ5QljYJjSjb8FECZyQKuKgpolok4bS3ykHrtXlfE37Mf7QaDa1kBoI0AEgqyPlk
OzjFkrDITIKO6QBrRvre/tBFp1tV5nBS+Vg=
-----END CERTIFICATE-----
