Generated by ./generate-certs.py.
Refer to generator script docstring for details.
Certificate:
    Data:
        Version: 3 (0x2)
        Serial Number:
            3e:cf:94:c3:ef:a3:21:ee:42:87:34:c7:d6:d6:e1:8c:da:71:34:1a
        Signature Algorithm: sha256WithRSAEncryption
        Issuer: CN=Root
        Validity
            Not Before: Nov  3 12:00:00 2020 GMT
            Not After : Nov  3 12:00:00 2021 GMT
        Subject: CN=I3
        Subject Public Key Info:
            Public Key Algorithm: rsaEncryption
                RSA Public-Key: (2048 bit)
                Modulus:
                    00:db:69:2a:fa:fb:3f:74:eb:e7:a8:42:19:92:88:
                    30:f7:1d:0b:77:09:d0:74:17:3e:2e:93:57:1a:49:
                    4a:10:e5:37:11:13:0f:25:fc:2c:11:eb:8f:95:86:
                    9f:c0:67:b4:be:5b:58:71:d3:66:09:ba:c5:db:5e:
                    43:4b:62:b3:6a:c1:41:fa:a4:e2:80:3d:72:0a:48:
                    26:e4:f9:96:ae:4b:b6:b4:2c:c6:5f:53:bc:80:65:
                    13:5e:a1:04:f1:e8:18:9b:e5:db:15:04:29:2d:c5:
                    97:7b:9f:a2:6a:f0:bd:ac:f7:89:c5:6f:5b:61:39:
                    97:82:eb:19:02:eb:56:a2:f7:2f:e8:56:72:26:f2:
                    8e:d8:6b:6d:4f:0c:4c:4d:bb:46:b7:f1:4f:37:33:
                    d4:9d:8b:5e:35:92:7c:e2:79:1a:55:fc:01:17:b1:
                    26:2d:af:e3:16:e4:96:2d:a6:41:81:ab:16:b0:74:
                    37:39:65:ba:12:0c:f1:8d:a9:1e:3f:51:91:a8:50:
                    c9:16:b3:ef:78:25:67:e5:c0:22:ec:93:64:50:a7:
                    81:78:10:00:28:df:17:c6:35:cc:9c:f8:50:83:36:
                    1f:a1:24:f4:44:c6:2f:69:a7:bc:36:73:69:3d:bb:
                    24:d8:19:74:1e:10:25:e3:0c:fc:d9:e2:95:2e:bf:
                    8d:c7
                Exponent: 65537 (0x10001)
        X509v3 extensions:
            X509v3 Subject Key Identifier: 
                40:F8:36:2C:4C:E3:28:99:C2:3E:78:F2:EA:68:AB:4F:01:7C:FC:28
            X509v3 Authority Key Identifier: 
                keyid:5F:CF:54:BD:7C:38:9B:5F:A1:AC:FE:A6:6E:7A:83:80:A6:4B:F9:BF

            Authority Information Access: 
                CA Issuers - URI:http://url-for-aia/Root.cer

            X509v3 CRL Distribution Points: 

                Full Name:
                  URI:http://url-for-crl/Root.crl

            X509v3 Key Usage: critical
                Certificate Sign, CRL Sign
            X509v3 Basic Constraints: critical
                CA:TRUE
    Signature Algorithm: sha256WithRSAEncryption
         3b:bd:9d:17:4b:ef:27:81:ff:c2:2a:a1:db:dd:81:20:01:61:
         3a:7a:2a:06:0b:bd:6b:02:a2:59:6b:ad:1c:7c:22:96:59:76:
         b4:35:f3:75:da:ce:67:20:5f:47:93:c0:f7:4e:47:7d:de:f3:
         3b:48:83:c0:bb:00:5e:66:eb:66:49:95:19:7e:44:8e:1a:23:
         d6:f9:41:40:c0:6f:76:20:d3:14:5a:44:a6:48:a7:d7:1d:e1:
         9e:c4:de:f6:46:7d:5d:cd:62:2a:8d:4c:dd:38:88:4e:1a:fa:
         e5:d1:ac:c7:0d:27:3e:7d:29:36:12:07:d8:f3:05:0a:2d:fb:
         bf:dd:45:03:ac:aa:e3:df:fb:8f:5f:ce:6e:a5:f7:69:79:0e:
         c3:e1:0f:62:03:89:6d:78:a4:df:aa:6c:47:fb:b4:9f:a3:74:
         bd:58:05:e2:01:1d:88:b9:71:53:d4:0c:6d:4f:d2:f7:e1:ea:
         b5:f4:0d:17:28:db:fd:3d:fb:80:5a:e2:bf:ce:5c:8f:8f:48:
         4c:f6:cf:d9:c7:3d:40:9f:0a:35:8f:9f:51:52:d9:5d:f4:2d:
         29:f7:c4:8b:82:eb:5d:24:36:ed:57:e9:33:ee:2f:fd:80:a4:
         f7:db:14:dc:b4:0d:6d:fa:33:b4:31:d2:1b:51:81:82:6a:89:
         71:a7:6c:e5
-----BEGIN CERTIFICATE-----
MIIDdjCCAl6gAwIBAgIUPs+Uw++jIe5ChzTH1tbhjNpxNBowDQYJKoZIhvcNAQEL
BQAwDzENMAsGA1UEAwwEUm9vdDAeFw0yMDExMDMxMjAwMDBaFw0yMTExMDMxMjAw
MDBaMA0xCzAJBgNVBAMMAkkzMIIBIjANBgkqhkiG9w0BAQEFAAOCAQ8AMIIBCgKC
AQEA22kq+vs/dOvnqEIZkogw9x0LdwnQdBc+LpNXGklKEOU3ERMPJfwsEeuPlYaf
wGe0vltYcdNmCbrF215DS2KzasFB+qTigD1yCkgm5PmWrku2tCzGX1O8gGUTXqEE
8egYm+XbFQQpLcWXe5+iavC9rPeJxW9bYTmXgusZAutWovcv6FZyJvKO2GttTwxM
TbtGt/FPNzPUnYteNZJ84nkaVfwBF7EmLa/jFuSWLaZBgasWsHQ3OWW6Egzxjake
P1GRqFDJFrPveCVn5cAi7JNkUKeBeBAAKN8XxjXMnPhQgzYfoST0RMYvaae8NnNp
Pbsk2Bl0HhAl4wz82eKVLr+NxwIDAQABo4HLMIHIMB0GA1UdDgQWBBRA+DYsTOMo
mcI+ePLqaKtPAXz8KDAfBgNVHSMEGDAWgBRfz1S9fDibX6Gs/qZueoOApkv5vzA3
BggrBgEFBQcBAQQrMCkwJwYIKwYBBQUHMAKGG2h0dHA6Ly91cmwtZm9yLWFpYS9S
b290LmNlcjAsBgNVHR8EJTAjMCGgH6AdhhtodHRwOi8vdXJsLWZvci1jcmwvUm9v
dC5jcmwwDgYDVR0PAQH/BAQDAgEGMA8GA1UdEwEB/wQFMAMBAf8wDQYJKoZIhvcN
AQELBQADggEBADu9nRdL7yeB/8IqodvdgSABYTp6KgYLvWsCollrrRx8IpZZdrQ1
83XazmcgX0eTwPdOR33e8ztIg8C7AF5m62ZJlRl+RI4aI9b5QUDAb3Yg0xRaRKZI
p9cd4Z7E3vZGfV3NYiqNTN04iE4a+uXRrMcNJz59KTYSB9jzBQot+7/dRQOsquPf
+49fzm6l92l5DsPhD2IDiW14pN+qbEf7tJ+jdL1YBeIBHYi5cVPUDG1P0vfh6rX0
DRco2/09+4Ba4r/OXI+PSEz2z9nHPUCfCjWPn1FS2V30LSn3xIuC610kNu1X6TPu
L/2ApPfbFNy0DW36M7Qx0htRgYJqiXGnbOU=
-----END CERTIFICATE-----
