Generated by ./generate-certs.py.
Refer to generator script docstring for details.
Certificate:
    Data:
        Version: 3 (0x2)
        Serial Number:
            3e:cf:94:c3:ef:a3:21:ee:42:87:34:c7:d6:d6:e1:8c:da:71:34:15
        Signature Algorithm: sha256WithRSAEncryption
        Issuer: CN=Root
        Validity
            Not Before: Nov  3 12:00:00 2020 GMT
            Not After : Nov  3 12:00:00 2021 GMT
        Subject: CN=Root
        Subject Public Key Info:
            Public Key Algorithm: rsaEncryption
                RSA Public-Key: (2048 bit)
                Modulus:
                    00:9e:7b:4a:e0:a1:87:18:da:df:76:0a:f9:9f:e9:
                    d1:e3:9b:2a:e5:ea:67:7e:5a:29:c5:19:ae:a4:5f:
                    f1:46:eb:ab:cc:43:36:fd:d3:a6:1e:cd:31:f5:a7:
                    c4:05:1b:f6:15:07:66:69:5f:bc:9c:a3:94:1a:35:
                    b4:f8:70:ce:46:e2:71:48:87:ff:d3:50:01:95:9b:
                    48:24:d9:41:71:90:9a:ca:8f:5b:e3:f9:11:2d:7d:
                    69:d1:29:54:4d:6b:5f:44:36:38:8c:22:57:8a:63:
                    b8:13:c5:02:73:78:a1:76:d8:c4:41:89:57:62:e2:
                    fe:cb:ac:bf:30:21:95:ff:d6:b7:a3:4b:d5:40:8c:
                    0f:a9:ef:29:e2:7f:cd:a1:56:89:5e:80:50:94:68:
                    13:45:00:e4:db:01:0c:0f:29:be:6b:5b:6a:29:a4:
                    d5:a4:50:9a:15:8d:1e:28:bd:5e:cd:92:48:73:3c:
                    a5:4e:83:b6:3b:bf:d8:c0:3b:67:1a:a2:bb:cb:0f:
                    26:34:40:9b:f9:ba:3c:33:95:2b:b2:a0:70:b9:27:
                    c5:c1:1f:bc:2a:5d:46:d0:39:a2:51:c5:88:90:dd:
                    1b:ce:84:dc:ae:cc:60:a6:37:7d:0e:c2:cf:63:4f:
                    be:96:94:2b:cb:23:0f:88:38:43:52:74:fa:16:54:
                    e9:29
                Exponent: 65537 (0x10001)
        X509v3 extensions:
            X509v3 Subject Key Identifier: 
                5F:CF:54:BD:7C:38:9B:5F:A1:AC:FE:A6:6E:7A:83:80:A6:4B:F9:BF
            X509v3 Authority Key Identifier: 
                keyid:5F:CF:54:BD:7C:38:9B:5F:A1:AC:FE:A6:6E:7A:83:80:A6:4B:F9:BF

            Authority Information Access: 
                CA Issuers - URI:http://url-for-aia/Root.cer

            X509v3 CRL Distribution Points: 

                Full Name:
                  URI:http://url-for-crl/Root.crl

            X509v3 Key Usage: critical
                Certificate Sign, CRL Sign
            X509v3 Basic Constraints: critical
                CA:TRUE
    Signature Algorithm: sha256WithRSAEncryption
         03:b7:85:b9:22:17:99:7f:87:70:b2:c4:3b:fc:1e:71:88:be:
         e0:0b:7c:f2:2e:ef:a8:b2:6c:dd:40:34:1b:a2:b4:c2:35:4a:
         c3:23:a6:c5:8a:c0:af:95:5b:d8:46:fe:71:22:41:10:63:5d:
         5c:ea:ff:65:01:56:96:0e:69:8f:8f:13:e9:77:48:64:b6:0a:
         3c:87:f7:b2:d8:2d:e5:2c:ab:ab:37:a0:9a:63:18:da:d4:40:
         de:8b:6f:5f:5a:7e:37:7b:69:98:7b:ce:79:d5:9b:46:8d:ae:
         30:d4:cb:eb:6e:06:e5:32:a7:24:a2:91:be:a2:03:eb:4c:3f:
         5f:6c:ce:cb:4f:d8:8a:34:a1:d0:c2:9f:e7:d4:d0:81:4a:2d:
         fd:65:7f:9d:04:a4:a5:3c:12:69:33:be:18:38:7d:37:c7:06:
         3a:bf:b4:3b:48:78:c7:7d:4e:a6:22:b9:b8:bb:f5:2a:e6:27:
         7d:a0:0b:09:9b:84:14:53:76:bc:55:42:cf:f6:ce:b6:10:26:
         11:f1:ee:70:a1:2f:a5:97:da:79:e1:91:92:09:f5:4b:7d:8d:
         8a:0b:60:a3:2b:eb:84:8c:d0:40:e9:d2:83:ce:97:30:ee:e1:
         1e:b2:9e:ee:e8:6c:01:13:17:c3:59:4c:07:7c:18:61:fc:59:
         cf:31:d2:e1
-----BEGIN CERTIFICATE-----
MIIDeDCCAmCgAwIBAgIUPs+Uw++jIe5ChzTH1tbhjNpxNBUwDQYJKoZIhvcNAQEL
BQAwDzENMAsGA1UEAwwEUm9vdDAeFw0yMDExMDMxMjAwMDBaFw0yMTExMDMxMjAw
MDBaMA8xDTALBgNVBAMMBFJvb3QwggEiMA0GCSqGSIb3DQEBAQUAA4IBDwAwggEK
AoIBAQCee0rgoYcY2t92Cvmf6dHjmyrl6md+WinFGa6kX/FG66vMQzb906YezTH1
p8QFG/YVB2ZpX7yco5QaNbT4cM5G4nFIh//TUAGVm0gk2UFxkJrKj1vj+REtfWnR
KVRNa19ENjiMIleKY7gTxQJzeKF22MRBiVdi4v7LrL8wIZX/1rejS9VAjA+p7yni
f82hVolegFCUaBNFAOTbAQwPKb5rW2oppNWkUJoVjR4ovV7NkkhzPKVOg7Y7v9jA
O2caorvLDyY0QJv5ujwzlSuyoHC5J8XBH7wqXUbQOaJRxYiQ3RvOhNyuzGCmN30O
ws9jT76WlCvLIw+IOENSdPoWVOkpAgMBAAGjgcswgcgwHQYDVR0OBBYEFF/PVL18
OJtfoaz+pm56g4CmS/m/MB8GA1UdIwQYMBaAFF/PVL18OJtfoaz+pm56g4CmS/m/
MDcGCCsGAQUFBwEBBCswKTAnBggrBgEFBQcwAoYbaHR0cDovL3VybC1mb3ItYWlh
L1Jvb3QuY2VyMCwGA1UdHwQlMCMwIaAfoB2GG2h0dHA6Ly91cmwtZm9yLWNybC9S
b290LmNybDAOBgNVHQ8BAf8EBAMCAQYwDwYDVR0TAQH/BAUwAwEB/zANBgkqhkiG
9w0BAQsFAAOCAQEAA7eFuSIXmX+HcLLEO/wecYi+4At88i7vqLJs3UA0G6K0wjVK
wyOmxYrAr5Vb2Eb+cSJBEGNdXOr/ZQFWlg5pj48T6XdIZLYKPIf3stgt5Syrqzeg
mmMY2tRA3otvX1p+N3tpmHvOedWbRo2uMNTL624G5TKnJKKRvqID60w/X2zOy0/Y
ijSh0MKf59TQgUot/WV/nQSkpTwSaTO+GDh9N8cGOr+0O0h4x31OpiK5uLv1KuYn
faALCZuEFFN2vFVCz/bOthAmEfHucKEvpZfaeeGRkgn1S32NigtgoyvrhIzQQOnS
g86XMO7hHrKe7uhsARMXw1lMB3wYYfxZzzHS4Q==
-----END CERTIFICATE-----
