[Created by: ./generate-certs.py]

Intermediate with validity range A..D

Certificate:
    Data:
        Version: 3 (0x2)
        Serial Number:
            0e:7f:a5:4d:e2:fa:3e:e7:33:f3:bb:f6:5a:0e:91:e9:b4:8a:75:7e
        Signature Algorithm: sha256WithRSAEncryption
        Issuer: CN=Root
        Validity
            Not Before: Jan  1 12:00:00 2015 GMT
            Not After : Jan  2 12:00:00 2018 GMT
        Subject: CN=Intermediate
        Subject Public Key Info:
            Public Key Algorithm: rsaEncryption
                RSA Public-Key: (2048 bit)
                Modulus:
                    00:ba:16:8c:a1:af:8d:dd:0d:3a:6c:d7:a5:5d:70:
                    64:e2:d2:15:be:7b:cb:ea:db:57:17:af:d8:f1:2c:
                    b6:e2:17:ae:11:2d:33:04:e5:ee:44:5c:2c:62:05:
                    ff:19:9e:0d:27:e3:21:c6:2b:3c:7e:db:56:5b:de:
                    23:a5:26:e1:99:67:d4:4f:6a:3c:9a:85:5b:10:b7:
                    da:21:99:ba:c6:ea:a1:74:cb:b7:ca:d9:cc:c3:9e:
                    e7:eb:dd:d2:1e:f0:75:5d:2e:3e:0b:8b:c0:0d:f5:
                    72:17:0f:2b:3a:41:ea:c0:ef:2d:8a:ee:aa:73:cb:
                    6c:97:63:30:be:4a:f8:75:58:05:28:05:b2:3d:91:
                    91:c9:d4:39:a6:25:a4:88:b9:2e:e6:af:9d:f6:ac:
                    9d:4e:46:4b:76:e6:df:d8:aa:3c:6a:6e:5d:d4:67:
                    fb:61:86:bd:33:44:f0:7f:c2:13:9f:f2:72:85:fe:
                    15:b6:51:20:0d:ee:28:e3:33:4d:4a:16:91:81:58:
                    6a:a1:17:5e:33:f2:e9:4c:f2:64:9b:f1:d2:8c:8e:
                    52:17:cd:26:f8:d1:6f:50:14:98:da:23:56:54:f6:
                    62:5b:e6:cf:34:74:d3:40:fc:fd:31:38:5a:fb:0d:
                    83:45:4a:7f:2e:fd:93:ef:93:4f:85:12:9e:f2:a3:
                    91:0d
                Exponent: 65537 (0x10001)
        X509v3 extensions:
            X509v3 Subject Key Identifier: 
                A5:15:6F:A5:45:D1:4A:85:AB:82:EC:DB:97:58:AA:6E:41:D1:44:A7
            X509v3 Authority Key Identifier: 
                keyid:08:3C:B1:56:BA:91:3F:80:72:30:8F:4E:85:7A:26:2F:34:89:74:B5

            Authority Information Access: 
                CA Issuers - URI:http://url-for-aia/Root.cer

            X509v3 CRL Distribution Points: 

                Full Name:
                  URI:http://url-for-crl/Root.crl

            X509v3 Key Usage: critical
                Certificate Sign, CRL Sign
            X509v3 Basic Constraints: critical
                CA:TRUE
    Signature Algorithm: sha256WithRSAEncryption
         6f:6a:28:e5:77:fe:bd:b2:3c:b5:ef:4e:7f:d2:20:c5:de:c8:
         d9:60:36:1e:00:c5:9c:ea:a2:f8:3f:ac:c1:98:b9:a3:99:39:
         ac:e3:68:91:a1:88:08:9e:f7:b9:8a:9e:04:59:72:22:09:fd:
         11:18:99:83:cf:79:29:b9:18:9b:34:66:6d:5e:0c:90:f8:98:
         ae:c4:5a:57:fb:db:1c:d7:f9:56:c2:bb:bf:ae:36:bb:00:73:
         04:7e:f7:72:93:4f:6c:c0:3c:a1:8b:82:7b:a2:11:f5:87:65:
         fe:e4:af:f4:4e:3d:6a:f0:e6:39:1e:58:5c:c9:10:35:c3:62:
         77:a5:1e:d6:0c:e2:12:74:d3:4c:ff:a9:10:c3:d0:af:d9:31:
         8f:69:04:d8:61:29:5a:1d:b7:90:95:4f:c0:d1:88:87:03:43:
         fd:bd:e3:55:92:20:61:77:ce:89:64:a3:41:d2:72:b5:60:ff:
         47:61:22:8c:10:61:f4:d8:cb:6c:e3:5e:3f:ef:18:1e:3d:e1:
         9b:d0:64:7c:ff:8a:8a:d4:9f:06:b7:11:84:67:5d:dc:46:e6:
         6f:c4:35:59:42:c2:7f:f2:1b:7a:30:8f:88:4b:f2:8f:26:8d:
         c5:aa:da:89:5d:a7:af:4e:13:da:ca:72:15:64:7d:e5:10:ee:
         ee:72:d5:1b
-----BEGIN CERTIFICATE-----
MIIDgDCCAmigAwIBAgIUDn+lTeL6Pucz87v2Wg6R6bSKdX4wDQYJKoZIhvcNAQEL
BQAwDzENMAsGA1UEAwwEUm9vdDAeFw0xNTAxMDExMjAwMDBaFw0xODAxMDIxMjAw
MDBaMBcxFTATBgNVBAMMDEludGVybWVkaWF0ZTCCASIwDQYJKoZIhvcNAQEBBQAD
ggEPADCCAQoCggEBALoWjKGvjd0NOmzXpV1wZOLSFb57y+rbVxev2PEstuIXrhEt
MwTl7kRcLGIF/xmeDSfjIcYrPH7bVlveI6Um4Zln1E9qPJqFWxC32iGZusbqoXTL
t8rZzMOe5+vd0h7wdV0uPguLwA31chcPKzpB6sDvLYruqnPLbJdjML5K+HVYBSgF
sj2RkcnUOaYlpIi5LuavnfasnU5GS3bm39iqPGpuXdRn+2GGvTNE8H/CE5/ycoX+
FbZRIA3uKOMzTUoWkYFYaqEXXjPy6UzyZJvx0oyOUhfNJvjRb1AUmNojVlT2Ylvm
zzR000D8/TE4WvsNg0VKfy79k++TT4USnvKjkQ0CAwEAAaOByzCByDAdBgNVHQ4E
FgQUpRVvpUXRSoWrguzbl1iqbkHRRKcwHwYDVR0jBBgwFoAUCDyxVrqRP4ByMI9O
hXomLzSJdLUwNwYIKwYBBQUHAQEEKzApMCcGCCsGAQUFBzAChhtodHRwOi8vdXJs
LWZvci1haWEvUm9vdC5jZXIwLAYDVR0fBCUwIzAhoB+gHYYbaHR0cDovL3VybC1m
b3ItY3JsL1Jvb3QuY3JsMA4GA1UdDwEB/wQEAwIBBjAPBgNVHRMBAf8EBTADAQH/
MA0GCSqGSIb3DQEBCwUAA4IBAQBvaijld/69sjy1705/0iDF3sjZYDYeAMWc6qL4
P6zBmLmjmTms42iRoYgInve5ip4EWXIiCf0RGJmDz3kpuRibNGZtXgyQ+JiuxFpX
+9sc1/lWwru/rja7AHMEfvdyk09swDyhi4J7ohH1h2X+5K/0Tj1q8OY5HlhcyRA1
w2J3pR7WDOISdNNM/6kQw9Cv2TGPaQTYYSlaHbeQlU/A0YiHA0P9veNVkiBhd86J
ZKNB0nK1YP9HYSKMEGH02Mts414/7xgePeGb0GR8/4qK1J8GtxGEZ13cRuZvxDVZ
QsJ/8ht6MI+IS/KPJo3FqtqJXaevThPaynIVZH3lEO7uctUb
-----END CERTIFICATE-----
