[Created by: ./generate-certs.py]

Intermediate with validity range A..C

Certificate:
    Data:
        Version: 3 (0x2)
        Serial Number:
            0e:7f:a5:4d:e2:fa:3e:e7:33:f3:bb:f6:5a:0e:91:e9:b4:8a:75:7d
        Signature Algorithm: sha256WithRSAEncryption
        Issuer: CN=Root
        Validity
            Not Before: Jan  1 12:00:00 2015 GMT
            Not After : Jan  1 12:00:00 2018 GMT
        Subject: CN=Intermediate
        Subject Public Key Info:
            Public Key Algorithm: rsaEncryption
                RSA Public-Key: (2048 bit)
                Modulus:
                    00:ba:16:8c:a1:af:8d:dd:0d:3a:6c:d7:a5:5d:70:
                    64:e2:d2:15:be:7b:cb:ea:db:57:17:af:d8:f1:2c:
                    b6:e2:17:ae:11:2d:33:04:e5:ee:44:5c:2c:62:05:
                    ff:19:9e:0d:27:e3:21:c6:2b:3c:7e:db:56:5b:de:
                    23:a5:26:e1:99:67:d4:4f:6a:3c:9a:85:5b:10:b7:
                    da:21:99:ba:c6:ea:a1:74:cb:b7:ca:d9:cc:c3:9e:
                    e7:eb:dd:d2:1e:f0:75:5d:2e:3e:0b:8b:c0:0d:f5:
                    72:17:0f:2b:3a:41:ea:c0:ef:2d:8a:ee:aa:73:cb:
                    6c:97:63:30:be:4a:f8:75:58:05:28:05:b2:3d:91:
                    91:c9:d4:39:a6:25:a4:88:b9:2e:e6:af:9d:f6:ac:
                    9d:4e:46:4b:76:e6:df:d8:aa:3c:6a:6e:5d:d4:67:
                    fb:61:86:bd:33:44:f0:7f:c2:13:9f:f2:72:85:fe:
                    15:b6:51:20:0d:ee:28:e3:33:4d:4a:16:91:81:58:
                    6a:a1:17:5e:33:f2:e9:4c:f2:64:9b:f1:d2:8c:8e:
                    52:17:cd:26:f8:d1:6f:50:14:98:da:23:56:54:f6:
                    62:5b:e6:cf:34:74:d3:40:fc:fd:31:38:5a:fb:0d:
                    83:45:4a:7f:2e:fd:93:ef:93:4f:85:12:9e:f2:a3:
                    91:0d
                Exponent: 65537 (0x10001)
        X509v3 extensions:
            X509v3 Subject Key Identifier: 
                A5:15:6F:A5:45:D1:4A:85:AB:82:EC:DB:97:58:AA:6E:41:D1:44:A7
            X509v3 Authority Key Identifier: 
                keyid:08:3C:B1:56:BA:91:3F:80:72:30:8F:4E:85:7A:26:2F:34:89:74:B5

            Authority Information Access: 
                CA Issuers - URI:http://url-for-aia/Root.cer

            X509v3 CRL Distribution Points: 

                Full Name:
                  URI:http://url-for-crl/Root.crl

            X509v3 Key Usage: critical
                Certificate Sign, CRL Sign
            X509v3 Basic Constraints: critical
                CA:TRUE
    Signature Algorithm: sha256WithRSAEncryption
         13:c3:c2:2d:1d:0c:3f:55:d9:e5:ee:f3:03:0a:b4:91:5a:f1:
         2d:8f:07:1d:48:b7:fa:7b:0b:8f:b0:65:37:07:c8:56:75:1d:
         49:b7:78:dd:cb:97:8e:85:b8:be:85:34:a7:39:60:40:b6:c9:
         25:06:ba:b6:11:8a:5e:28:cb:c5:fc:da:83:04:96:06:cd:38:
         1b:a0:ba:85:17:f5:66:01:fe:1e:73:94:c9:09:83:64:40:c6:
         76:ce:0f:db:d3:33:77:55:27:68:b3:c8:a0:a9:9f:1f:c0:c8:
         c6:79:f4:9e:10:62:13:e0:f3:6a:f9:78:7f:b3:02:91:1f:75:
         ce:e8:ef:8e:90:9f:eb:24:f3:42:ed:86:b2:de:30:c4:0d:9a:
         10:1a:3e:94:67:75:bd:d0:28:02:f1:6f:e6:6a:3f:ef:a6:d3:
         f2:5d:6a:ef:5a:34:81:d2:8b:a9:a0:db:df:79:5b:58:c8:b8:
         cd:09:bf:05:ce:d2:ce:ee:00:03:11:9c:27:01:1c:9d:b8:06:
         9a:42:8d:3f:3b:58:69:f4:c3:8c:3c:a9:e3:a7:1b:ad:f1:b0:
         d0:e9:07:2a:a2:8e:bd:4b:69:38:1c:01:ce:ae:3a:98:8c:89:
         5b:96:93:e6:f7:5e:fd:d1:97:92:91:8f:05:c9:54:7a:74:ba:
         74:82:a4:22
-----BEGIN CERTIFICATE-----
MIIDgDCCAmigAwIBAgIUDn+lTeL6Pucz87v2Wg6R6bSKdX0wDQYJKoZIhvcNAQEL
BQAwDzENMAsGA1UEAwwEUm9vdDAeFw0xNTAxMDExMjAwMDBaFw0xODAxMDExMjAw
MDBaMBcxFTATBgNVBAMMDEludGVybWVkaWF0ZTCCASIwDQYJKoZIhvcNAQEBBQAD
ggEPADCCAQoCggEBALoWjKGvjd0NOmzXpV1wZOLSFb57y+rbVxev2PEstuIXrhEt
MwTl7kRcLGIF/xmeDSfjIcYrPH7bVlveI6Um4Zln1E9qPJqFWxC32iGZusbqoXTL
t8rZzMOe5+vd0h7wdV0uPguLwA31chcPKzpB6sDvLYruqnPLbJdjML5K+HVYBSgF
sj2RkcnUOaYlpIi5LuavnfasnU5GS3bm39iqPGpuXdRn+2GGvTNE8H/CE5/ycoX+
FbZRIA3uKOMzTUoWkYFYaqEXXjPy6UzyZJvx0oyOUhfNJvjRb1AUmNojVlT2Ylvm
zzR000D8/TE4WvsNg0VKfy79k++TT4USnvKjkQ0CAwEAAaOByzCByDAdBgNVHQ4E
FgQUpRVvpUXRSoWrguzbl1iqbkHRRKcwHwYDVR0jBBgwFoAUCDyxVrqRP4ByMI9O
hXomLzSJdLUwNwYIKwYBBQUHAQEEKzApMCcGCCsGAQUFBzAChhtodHRwOi8vdXJs
LWZvci1haWEvUm9vdC5jZXIwLAYDVR0fBCUwIzAhoB+gHYYbaHR0cDovL3VybC1m
b3ItY3JsL1Jvb3QuY3JsMA4GA1UdDwEB/wQEAwIBBjAPBgNVHRMBAf8EBTADAQH/
MA0GCSqGSIb3DQEBCwUAA4IBAQATw8ItHQw/Vdnl7vMDCrSRWvEtjwcdSLf6ewuP
sGU3B8hWdR1Jt3jdy5eOhbi+hTSnOWBAtsklBrq2EYpeKMvF/NqDBJYGzTgboLqF
F/VmAf4ec5TJCYNkQMZ2zg/b0zN3VSdos8igqZ8fwMjGefSeEGIT4PNq+Xh/swKR
H3XO6O+OkJ/rJPNC7Yay3jDEDZoQGj6UZ3W90CgC8W/maj/vptPyXWrvWjSB0oup
oNvfeVtYyLjNCb8FztLO7gADEZwnARyduAaaQo0/O1hp9MOMPKnjpxut8bDQ6Qcq
oo69S2k4HAHOrjqYjIlblpPm91790ZeSkY8FyVR6dLp0gqQi
-----END CERTIFICATE-----
