[Created by: ./generate-certs.py]

Intermediate with validity range B..C

Certificate:
    Data:
        Version: 3 (0x2)
        Serial Number:
            0e:7f:a5:4d:e2:fa:3e:e7:33:f3:bb:f6:5a:0e:91:e9:b4:8a:75:7f
        Signature Algorithm: sha256WithRSAEncryption
        Issuer: CN=Root
        Validity
            Not Before: Jan  2 12:00:00 2015 GMT
            Not After : Jan  1 12:00:00 2018 GMT
        Subject: CN=Intermediate
        Subject Public Key Info:
            Public Key Algorithm: rsaEncryption
                RSA Public-Key: (2048 bit)
                Modulus:
                    00:ba:16:8c:a1:af:8d:dd:0d:3a:6c:d7:a5:5d:70:
                    64:e2:d2:15:be:7b:cb:ea:db:57:17:af:d8:f1:2c:
                    b6:e2:17:ae:11:2d:33:04:e5:ee:44:5c:2c:62:05:
                    ff:19:9e:0d:27:e3:21:c6:2b:3c:7e:db:56:5b:de:
                    23:a5:26:e1:99:67:d4:4f:6a:3c:9a:85:5b:10:b7:
                    da:21:99:ba:c6:ea:a1:74:cb:b7:ca:d9:cc:c3:9e:
                    e7:eb:dd:d2:1e:f0:75:5d:2e:3e:0b:8b:c0:0d:f5:
                    72:17:0f:2b:3a:41:ea:c0:ef:2d:8a:ee:aa:73:cb:
                    6c:97:63:30:be:4a:f8:75:58:05:28:05:b2:3d:91:
                    91:c9:d4:39:a6:25:a4:88:b9:2e:e6:af:9d:f6:ac:
                    9d:4e:46:4b:76:e6:df:d8:aa:3c:6a:6e:5d:d4:67:
                    fb:61:86:bd:33:44:f0:7f:c2:13:9f:f2:72:85:fe:
                    15:b6:51:20:0d:ee:28:e3:33:4d:4a:16:91:81:58:
                    6a:a1:17:5e:33:f2:e9:4c:f2:64:9b:f1:d2:8c:8e:
                    52:17:cd:26:f8:d1:6f:50:14:98:da:23:56:54:f6:
                    62:5b:e6:cf:34:74:d3:40:fc:fd:31:38:5a:fb:0d:
                    83:45:4a:7f:2e:fd:93:ef:93:4f:85:12:9e:f2:a3:
                    91:0d
                Exponent: 65537 (0x10001)
        X509v3 extensions:
            X509v3 Subject Key Identifier: 
                A5:15:6F:A5:45:D1:4A:85:AB:82:EC:DB:97:58:AA:6E:41:D1:44:A7
            X509v3 Authority Key Identifier: 
                keyid:08:3C:B1:56:BA:91:3F:80:72:30:8F:4E:85:7A:26:2F:34:89:74:B5

            Authority Information Access: 
                CA Issuers - URI:http://url-for-aia/Root.cer

            X509v3 CRL Distribution Points: 

                Full Name:
                  URI:http://url-for-crl/Root.crl

            X509v3 Key Usage: critical
                Certificate Sign, CRL Sign
            X509v3 Basic Constraints: critical
                CA:TRUE
    Signature Algorithm: sha256WithRSAEncryption
         0a:b8:fe:ed:58:f8:43:b8:b0:63:1e:1b:e8:50:d0:7b:7c:2a:
         21:9f:9f:e7:9a:15:8b:f2:08:ed:34:04:90:d4:d0:d1:74:19:
         20:81:5f:31:e1:33:b9:03:25:fd:9c:2b:cc:62:8b:63:79:2a:
         e7:04:d0:3e:45:4b:c4:f3:1f:7b:ea:68:b3:db:ae:f9:11:b2:
         18:a2:f6:b4:ea:b4:7b:2c:5b:fc:e9:53:4f:de:d8:fa:bc:fc:
         cf:6e:89:c3:53:12:a7:4c:76:bd:1a:80:17:bc:c9:6d:80:5b:
         dd:f3:3f:8a:fa:9b:b4:41:44:70:c3:2d:ec:10:82:d5:b6:07:
         b2:ac:84:49:76:59:9b:8e:59:f6:bf:ef:54:c9:33:7c:15:67:
         3b:68:1b:b1:64:00:aa:8d:e8:c0:c0:27:8d:1f:ea:d0:da:bb:
         60:11:91:d8:dd:f4:82:88:c7:1b:2b:24:cc:1f:6c:6e:d4:a7:
         87:06:3f:fe:52:b4:ca:63:29:62:7e:45:ef:3c:25:35:78:e2:
         2f:a7:e7:d6:81:48:c4:29:0b:e2:28:5a:9f:79:72:c6:e9:6b:
         01:4f:22:1a:f4:ff:09:6b:96:f3:0b:4a:9d:c3:d7:87:93:be:
         3c:21:d8:84:37:10:4d:55:a4:c4:f9:07:b3:36:64:44:f0:a7:
         fe:47:b1:42
-----BEGIN CERTIFICATE-----
MIIDgDCCAmigAwIBAgIUDn+lTeL6Pucz87v2Wg6R6bSKdX8wDQYJKoZIhvcNAQEL
BQAwDzENMAsGA1UEAwwEUm9vdDAeFw0xNTAxMDIxMjAwMDBaFw0xODAxMDExMjAw
MDBaMBcxFTATBgNVBAMMDEludGVybWVkaWF0ZTCCASIwDQYJKoZIhvcNAQEBBQAD
ggEPADCCAQoCggEBALoWjKGvjd0NOmzXpV1wZOLSFb57y+rbVxev2PEstuIXrhEt
MwTl7kRcLGIF/xmeDSfjIcYrPH7bVlveI6Um4Zln1E9qPJqFWxC32iGZusbqoXTL
t8rZzMOe5+vd0h7wdV0uPguLwA31chcPKzpB6sDvLYruqnPLbJdjML5K+HVYBSgF
sj2RkcnUOaYlpIi5LuavnfasnU5GS3bm39iqPGpuXdRn+2GGvTNE8H/CE5/ycoX+
FbZRIA3uKOMzTUoWkYFYaqEXXjPy6UzyZJvx0oyOUhfNJvjRb1AUmNojVlT2Ylvm
zzR000D8/TE4WvsNg0VKfy79k++TT4USnvKjkQ0CAwEAAaOByzCByDAdBgNVHQ4E
FgQUpRVvpUXRSoWrguzbl1iqbkHRRKcwHwYDVR0jBBgwFoAUCDyxVrqRP4ByMI9O
hXomLzSJdLUwNwYIKwYBBQUHAQEEKzApMCcGCCsGAQUFBzAChhtodHRwOi8vdXJs
LWZvci1haWEvUm9vdC5jZXIwLAYDVR0fBCUwIzAhoB+gHYYbaHR0cDovL3VybC1m
b3ItY3JsL1Jvb3QuY3JsMA4GA1UdDwEB/wQEAwIBBjAPBgNVHRMBAf8EBTADAQH/
MA0GCSqGSIb3DQEBCwUAA4IBAQAKuP7tWPhDuLBjHhvoUNB7fCohn5/nmhWL8gjt
NASQ1NDRdBkggV8x4TO5AyX9nCvMYotjeSrnBNA+RUvE8x976miz2675EbIYova0
6rR7LFv86VNP3tj6vPzPbonDUxKnTHa9GoAXvMltgFvd8z+K+pu0QURwwy3sEILV
tgeyrIRJdlmbjln2v+9UyTN8FWc7aBuxZACqjejAwCeNH+rQ2rtgEZHY3fSCiMcb
KyTMH2xu1KeHBj/+UrTKYylifkXvPCU1eOIvp+fWgUjEKQviKFqfeXLG6WsBTyIa
9P8Ja5bzC0qdw9eHk748IdiENxBNVaTE+QezNmRE8Kf+R7FC
-----END CERTIFICATE-----
