[Created by: ./generate-certs.py]

Intermediate with validity range B..D

Certificate:
    Data:
        Version: 3 (0x2)
        Serial Number:
            0e:7f:a5:4d:e2:fa:3e:e7:33:f3:bb:f6:5a:0e:91:e9:b4:8a:75:80
        Signature Algorithm: sha256WithRSAEncryption
        Issuer: CN=Root
        Validity
            Not Before: Jan  2 12:00:00 2015 GMT
            Not After : Jan  2 12:00:00 2018 GMT
        Subject: CN=Intermediate
        Subject Public Key Info:
            Public Key Algorithm: rsaEncryption
                RSA Public-Key: (2048 bit)
                Modulus:
                    00:ba:16:8c:a1:af:8d:dd:0d:3a:6c:d7:a5:5d:70:
                    64:e2:d2:15:be:7b:cb:ea:db:57:17:af:d8:f1:2c:
                    b6:e2:17:ae:11:2d:33:04:e5:ee:44:5c:2c:62:05:
                    ff:19:9e:0d:27:e3:21:c6:2b:3c:7e:db:56:5b:de:
                    23:a5:26:e1:99:67:d4:4f:6a:3c:9a:85:5b:10:b7:
                    da:21:99:ba:c6:ea:a1:74:cb:b7:ca:d9:cc:c3:9e:
                    e7:eb:dd:d2:1e:f0:75:5d:2e:3e:0b:8b:c0:0d:f5:
                    72:17:0f:2b:3a:41:ea:c0:ef:2d:8a:ee:aa:73:cb:
                    6c:97:63:30:be:4a:f8:75:58:05:28:05:b2:3d:91:
                    91:c9:d4:39:a6:25:a4:88:b9:2e:e6:af:9d:f6:ac:
                    9d:4e:46:4b:76:e6:df:d8:aa:3c:6a:6e:5d:d4:67:
                    fb:61:86:bd:33:44:f0:7f:c2:13:9f:f2:72:85:fe:
                    15:b6:51:20:0d:ee:28:e3:33:4d:4a:16:91:81:58:
                    6a:a1:17:5e:33:f2:e9:4c:f2:64:9b:f1:d2:8c:8e:
                    52:17:cd:26:f8:d1:6f:50:14:98:da:23:56:54:f6:
                    62:5b:e6:cf:34:74:d3:40:fc:fd:31:38:5a:fb:0d:
                    83:45:4a:7f:2e:fd:93:ef:93:4f:85:12:9e:f2:a3:
                    91:0d
                Exponent: 65537 (0x10001)
        X509v3 extensions:
            X509v3 Subject Key Identifier: 
                A5:15:6F:A5:45:D1:4A:85:AB:82:EC:DB:97:58:AA:6E:41:D1:44:A7
            X509v3 Authority Key Identifier: 
                keyid:08:3C:B1:56:BA:91:3F:80:72:30:8F:4E:85:7A:26:2F:34:89:74:B5

            Authority Information Access: 
                CA Issuers - URI:http://url-for-aia/Root.cer

            X509v3 CRL Distribution Points: 

                Full Name:
                  URI:http://url-for-crl/Root.crl

            X509v3 Key Usage: critical
                Certificate Sign, CRL Sign
            X509v3 Basic Constraints: critical
                CA:TRUE
    Signature Algorithm: sha256WithRSAEncryption
         1a:d1:52:17:ec:4a:e3:2a:db:a7:33:f8:ca:77:89:d7:ed:f8:
         74:44:2f:f7:b0:90:93:8f:02:a3:7f:81:a7:9c:e5:70:9b:cf:
         91:d8:9c:12:62:75:0c:d1:fe:c0:f5:e6:e4:07:89:4f:06:88:
         b0:1b:19:e8:e0:0a:22:bc:f0:0f:e8:2c:21:d2:58:0b:99:8f:
         f1:32:69:46:e3:6a:02:f3:c9:df:03:f9:5e:2b:af:18:61:35:
         b4:05:2a:3e:64:9c:55:5c:d1:26:a1:8e:62:fe:ab:5e:6e:7b:
         47:9f:d2:f3:64:16:9e:a8:72:15:42:0c:33:29:dd:31:68:bf:
         33:db:eb:7e:47:7b:c3:c7:bb:a0:ec:35:75:12:82:ce:28:f5:
         7e:c8:98:b8:60:9f:a6:78:95:9f:16:0a:ba:c4:45:4e:f5:80:
         e5:38:bb:07:b5:a5:d5:d3:09:bf:9c:92:c1:0d:d2:fd:13:32:
         92:7a:be:10:07:ff:52:f1:39:89:be:7e:9a:7a:e9:e3:6a:43:
         07:30:a4:19:e7:ac:96:c3:40:2b:3a:7c:d0:06:6d:2d:17:cc:
         e9:11:e2:a8:9c:25:83:33:6f:fc:8e:47:63:ad:3e:05:95:f7:
         e7:3e:d5:1d:ba:30:08:d5:94:1c:91:40:38:96:f6:29:03:10:
         ee:42:ed:92
-----BEGIN CERTIFICATE-----
MIIDgDCCAmigAwIBAgIUDn+lTeL6Pucz87v2Wg6R6bSKdYAwDQYJKoZIhvcNAQEL
BQAwDzENMAsGA1UEAwwEUm9vdDAeFw0xNTAxMDIxMjAwMDBaFw0xODAxMDIxMjAw
MDBaMBcxFTATBgNVBAMMDEludGVybWVkaWF0ZTCCASIwDQYJKoZIhvcNAQEBBQAD
ggEPADCCAQoCggEBALoWjKGvjd0NOmzXpV1wZOLSFb57y+rbVxev2PEstuIXrhEt
MwTl7kRcLGIF/xmeDSfjIcYrPH7bVlveI6Um4Zln1E9qPJqFWxC32iGZusbqoXTL
t8rZzMOe5+vd0h7wdV0uPguLwA31chcPKzpB6sDvLYruqnPLbJdjML5K+HVYBSgF
sj2RkcnUOaYlpIi5LuavnfasnU5GS3bm39iqPGpuXdRn+2GGvTNE8H/CE5/ycoX+
FbZRIA3uKOMzTUoWkYFYaqEXXjPy6UzyZJvx0oyOUhfNJvjRb1AUmNojVlT2Ylvm
zzR000D8/TE4WvsNg0VKfy79k++TT4USnvKjkQ0CAwEAAaOByzCByDAdBgNVHQ4E
FgQUpRVvpUXRSoWrguzbl1iqbkHRRKcwHwYDVR0jBBgwFoAUCDyxVrqRP4ByMI9O
hXomLzSJdLUwNwYIKwYBBQUHAQEEKzApMCcGCCsGAQUFBzAChhtodHRwOi8vdXJs
LWZvci1haWEvUm9vdC5jZXIwLAYDVR0fBCUwIzAhoB+gHYYbaHR0cDovL3VybC1m
b3ItY3JsL1Jvb3QuY3JsMA4GA1UdDwEB/wQEAwIBBjAPBgNVHRMBAf8EBTADAQH/
MA0GCSqGSIb3DQEBCwUAA4IBAQAa0VIX7ErjKtunM/jKd4nX7fh0RC/3sJCTjwKj
f4GnnOVwm8+R2JwSYnUM0f7A9ebkB4lPBoiwGxno4AoivPAP6Cwh0lgLmY/xMmlG
42oC88nfA/leK68YYTW0BSo+ZJxVXNEmoY5i/qtebntHn9LzZBaeqHIVQgwzKd0x
aL8z2+t+R3vDx7ug7DV1EoLOKPV+yJi4YJ+meJWfFgq6xEVO9YDlOLsHtaXV0wm/
nJLBDdL9EzKSer4QB/9S8TmJvn6aeunjakMHMKQZ56yWw0ArOnzQBm0tF8zpEeKo
nCWDM2/8jkdjrT4FlffnPtUdujAI1ZQckUA4lvYpAxDuQu2S
-----END CERTIFICATE-----
