[Created by: ./generate-certs.py]

The root

Certificate:
    Data:
        Version: 3 (0x2)
        Serial Number:
            0e:7f:a5:4d:e2:fa:3e:e7:33:f3:bb:f6:5a:0e:91:e9:b4:8a:75:7c
        Signature Algorithm: sha256WithRSAEncryption
        Issuer: CN=Root
        Validity
            Not Before: Jan  1 12:00:00 2015 GMT
            Not After : Jan  2 12:00:00 2018 GMT
        Subject: CN=Root
        Subject Public Key Info:
            Public Key Algorithm: rsaEncryption
                RSA Public-Key: (2048 bit)
                Modulus:
                    00:b2:7a:cd:26:c9:30:48:9e:2f:7c:bd:6f:76:6c:
                    72:8a:c2:62:22:21:0c:db:95:b1:c6:09:27:7d:fa:
                    34:41:2b:b8:17:26:8f:93:f0:c7:8a:a4:a5:12:34:
                    8d:c5:73:9c:60:3d:2e:95:30:84:fc:78:a0:19:3f:
                    c9:50:41:0f:a9:20:10:64:20:d4:c6:c8:ca:b8:a6:
                    c5:75:d3:5e:36:db:e9:48:34:d7:e2:7b:31:13:25:
                    0e:37:42:70:99:20:06:d9:08:13:6a:37:69:25:a2:
                    4f:07:89:7b:24:1b:09:75:70:41:9b:c4:0e:d6:35:
                    a0:98:4c:a0:93:f9:ce:c5:71:68:d1:d5:bb:58:ec:
                    bb:22:42:dd:ea:75:fa:7e:08:18:6f:30:98:25:6d:
                    3e:81:a4:4a:1e:52:a9:dd:93:2e:5a:a5:c0:5a:32:
                    d6:c4:b2:4b:fe:ad:a6:e0:8a:85:4c:00:a5:b0:58:
                    67:52:b6:71:69:ef:f1:61:85:8c:d9:f7:18:c0:e7:
                    e6:94:39:ac:01:ed:ff:3e:de:02:40:7a:99:95:c6:
                    a8:6a:c4:b0:a4:cb:2f:17:b8:06:bb:59:d6:21:80:
                    c3:53:94:42:7b:5b:bc:83:9a:96:c3:a0:b0:9e:31:
                    bc:63:62:cb:78:bf:e2:ec:3f:d4:7e:9d:6a:47:79:
                    d0:71
                Exponent: 65537 (0x10001)
        X509v3 extensions:
            X509v3 Subject Key Identifier: 
                08:3C:B1:56:BA:91:3F:80:72:30:8F:4E:85:7A:26:2F:34:89:74:B5
            X509v3 Authority Key Identifier: 
                keyid:08:3C:B1:56:BA:91:3F:80:72:30:8F:4E:85:7A:26:2F:34:89:74:B5

            Authority Information Access: 
                CA Issuers - URI:http://url-for-aia/Root.cer

            X509v3 CRL Distribution Points: 

                Full Name:
                  URI:http://url-for-crl/Root.crl

            X509v3 Key Usage: critical
                Certificate Sign, CRL Sign
            X509v3 Basic Constraints: critical
                CA:TRUE
    Signature Algorithm: sha256WithRSAEncryption
         16:dc:08:df:95:7c:81:dd:02:d0:4b:ac:7b:49:c6:77:da:05:
         c4:92:35:2d:a7:e6:b6:e1:9a:6d:42:f8:48:48:e4:2f:05:21:
         eb:6f:00:e7:2e:f1:37:da:e3:9a:6d:21:05:61:1e:51:09:6b:
         95:12:1f:e2:45:d4:5d:0e:5a:20:4a:10:0b:bb:42:09:69:38:
         5e:55:ba:07:a1:2c:e6:ac:26:9d:50:d8:f6:e8:5d:ce:dc:96:
         97:8f:89:c4:e1:b9:0f:12:c8:a9:bc:22:d3:aa:ce:a2:0d:c3:
         07:ed:b9:e7:e0:67:2e:6d:7f:89:1d:21:75:4a:68:e2:7c:3d:
         aa:6d:53:8c:42:e5:af:07:8f:a5:fc:61:af:08:52:f7:7f:b3:
         59:1f:ca:a8:1c:95:14:76:24:24:86:6c:5e:24:68:76:5c:23:
         80:b7:76:3d:28:a0:f2:88:8c:18:d7:56:06:24:4c:e4:04:0b:
         6e:ce:35:48:6f:dd:51:c6:d6:4e:b5:56:b6:8c:83:75:24:fb:
         be:bd:2d:c5:0b:f0:f5:dc:04:62:c6:c5:90:6e:c5:de:1a:58:
         a2:bc:9f:2d:f3:7e:6e:74:7d:8b:f1:c7:a0:54:2f:9a:81:cf:
         74:86:41:da:df:8e:8a:b8:f0:de:9c:24:ae:d7:54:ef:aa:81:
         06:0f:1e:f6
-----BEGIN CERTIFICATE-----
MIIDeDCCAmCgAwIBAgIUDn+lTeL6Pucz87v2Wg6R6bSKdXwwDQYJKoZIhvcNAQEL
BQAwDzENMAsGA1UEAwwEUm9vdDAeFw0xNTAxMDExMjAwMDBaFw0xODAxMDIxMjAw
MDBaMA8xDTALBgNVBAMMBFJvb3QwggEiMA0GCSqGSIb3DQEBAQUAA4IBDwAwggEK
AoIBAQCyes0myTBIni98vW92bHKKwmIiIQzblbHGCSd9+jRBK7gXJo+T8MeKpKUS
NI3Fc5xgPS6VMIT8eKAZP8lQQQ+pIBBkINTGyMq4psV101422+lINNfiezETJQ43
QnCZIAbZCBNqN2klok8HiXskGwl1cEGbxA7WNaCYTKCT+c7FcWjR1btY7LsiQt3q
dfp+CBhvMJglbT6BpEoeUqndky5apcBaMtbEskv+rabgioVMAKWwWGdStnFp7/Fh
hYzZ9xjA5+aUOawB7f8+3gJAepmVxqhqxLCkyy8XuAa7WdYhgMNTlEJ7W7yDmpbD
oLCeMbxjYst4v+LsP9R+nWpHedBxAgMBAAGjgcswgcgwHQYDVR0OBBYEFAg8sVa6
kT+AcjCPToV6Ji80iXS1MB8GA1UdIwQYMBaAFAg8sVa6kT+AcjCPToV6Ji80iXS1
MDcGCCsGAQUFBwEBBCswKTAnBggrBgEFBQcwAoYbaHR0cDovL3VybC1mb3ItYWlh
L1Jvb3QuY2VyMCwGA1UdHwQlMCMwIaAfoB2GG2h0dHA6Ly91cmwtZm9yLWNybC9S
b290LmNybDAOBgNVHQ8BAf8EBAMCAQYwDwYDVR0TAQH/BAUwAwEB/zANBgkqhkiG
9w0BAQsFAAOCAQEAFtwI35V8gd0C0Euse0nGd9oFxJI1LafmtuGabUL4SEjkLwUh
628A5y7xN9rjmm0hBWEeUQlrlRIf4kXUXQ5aIEoQC7tCCWk4XlW6B6Es5qwmnVDY
9uhdztyWl4+JxOG5DxLIqbwi06rOog3DB+255+BnLm1/iR0hdUpo4nw9qm1TjELl
rwePpfxhrwhS93+zWR/KqByVFHYkJIZsXiRodlwjgLd2PSig8oiMGNdWBiRM5AQL
bs41SG/dUcbWTrVWtoyDdST7vr0txQvw9dwEYsbFkG7F3hpYoryfLfN+bnR9i/HH
oFQvmoHPdIZB2t+Oirjw3pwkrtdU76qBBg8e9g==
-----END CERTIFICATE-----
