[Created by: ./generate-certs.py]

The target

Certificate:
    Data:
        Version: 3 (0x2)
        Serial Number:
            54:f0:81:fd:d4:7b:6a:f2:04:73:10:a8:d7:2d:23:d1:af:ac:79:03
        Signature Algorithm: sha256WithRSAEncryption
        Issuer: CN=Intermediate
        Validity
            Not Before: Jan  1 12:00:00 2015 GMT
            Not After : Jan  2 12:00:00 2018 GMT
        Subject: CN=Target
        Subject Public Key Info:
            Public Key Algorithm: rsaEncryption
                RSA Public-Key: (2048 bit)
                Modulus:
                    00:ad:4c:0b:84:8d:85:7f:c5:c8:52:21:58:80:af:
                    c0:fb:f0:f7:db:f5:6e:4e:00:87:24:7c:a9:5d:00:
                    25:e8:ca:b6:87:29:98:a6:86:62:a8:da:bc:9c:4a:
                    b7:57:7a:f7:01:93:f5:7c:fa:ba:20:3c:b4:7b:03:
                    1d:64:49:a4:ef:05:7a:61:9e:5d:57:63:05:83:e0:
                    59:b5:50:cb:98:72:77:24:50:ae:ce:48:bd:80:af:
                    cd:06:38:58:8f:93:6e:5a:6b:2b:51:82:37:79:31:
                    76:ce:fd:3f:3f:ea:41:08:c1:1c:59:d4:67:22:2f:
                    97:0e:d8:c1:26:c7:91:fb:38:c8:9d:e2:b9:2d:d3:
                    27:2c:18:d0:09:41:8e:b4:24:e4:de:89:d9:c5:35:
                    41:18:36:b0:c1:f0:f6:d1:bc:7a:7e:7e:c2:42:d6:
                    a8:ce:dc:8f:5d:6b:22:a3:1b:fe:65:30:3c:15:18:
                    38:cf:89:80:4f:1a:c6:c2:ba:3a:06:00:19:a3:aa:
                    ab:7b:f2:92:53:8c:20:14:6a:40:df:7f:8a:43:15:
                    b9:80:ff:9f:fe:49:d1:90:9b:6f:18:3f:c2:34:b6:
                    83:75:28:41:fe:cf:92:76:f2:6e:60:ed:cd:e7:09:
                    67:c0:1e:72:c3:21:34:42:7e:14:29:ac:53:d8:a1:
                    b2:8d
                Exponent: 65537 (0x10001)
        X509v3 extensions:
            X509v3 Subject Key Identifier: 
                AC:D9:32:20:3D:CB:6D:E1:C6:10:69:C5:6E:11:B9:F5:95:BF:F6:13
            X509v3 Authority Key Identifier: 
                keyid:A5:15:6F:A5:45:D1:4A:85:AB:82:EC:DB:97:58:AA:6E:41:D1:44:A7

            Authority Information Access: 
                CA Issuers - URI:http://url-for-aia/Intermediate.cer

            X509v3 CRL Distribution Points: 

                Full Name:
                  URI:http://url-for-crl/Intermediate.crl

            X509v3 Key Usage: critical
                Digital Signature, Key Encipherment
            X509v3 Extended Key Usage: 
                TLS Web Server Authentication, TLS Web Client Authentication
    Signature Algorithm: sha256WithRSAEncryption
         97:a1:11:70:fb:ab:15:a1:6c:67:bf:ff:e1:08:53:f3:c5:9c:
         73:7e:4a:bf:9d:4e:7a:bb:65:73:a8:c4:1f:e9:02:c2:e3:09:
         54:b3:9e:df:45:e0:02:ef:f7:4a:67:e2:f2:ee:39:28:91:b8:
         e2:74:88:d7:a4:f8:e9:13:2b:90:73:89:7b:54:09:1b:f0:ac:
         fb:4b:7c:a1:3a:d7:f4:2f:4b:7e:2a:c9:f5:4b:8e:fb:77:9e:
         66:0e:59:57:3a:b2:f9:a8:2c:90:b8:af:27:88:b3:6f:3c:ab:
         ea:14:a9:ec:2e:54:80:1a:ed:b1:3f:09:54:f1:12:6b:d4:c4:
         23:2e:e5:d2:7d:71:18:d0:b9:ad:02:c4:75:bc:60:50:ae:2f:
         6e:65:ff:1d:21:f0:dd:56:cb:51:15:30:e4:ea:40:ca:9a:e3:
         6d:e9:21:8e:5d:11:ef:e4:9b:72:1a:cf:a0:ff:e3:fc:44:9f:
         34:83:3b:e4:a2:d8:e8:99:a3:8a:8d:ff:75:50:ed:d4:32:b7:
         49:04:61:be:89:52:ed:61:e5:32:88:71:43:72:fc:f7:03:a4:
         dc:dc:96:b6:70:bc:00:52:08:8c:a6:e5:fe:12:1d:99:d4:76:
         bd:1e:50:bf:07:4f:ca:fd:dd:71:d4:eb:e1:42:d8:84:3c:d5:
         8c:06:f1:e9
-----BEGIN CERTIFICATE-----
MIIDoDCCAoigAwIBAgIUVPCB/dR7avIEcxCo1y0j0a+seQMwDQYJKoZIhvcNAQEL
BQAwFzEVMBMGA1UEAwwMSW50ZXJtZWRpYXRlMB4XDTE1MDEwMTEyMDAwMFoXDTE4
MDEwMjEyMDAwMFowETEPMA0GA1UEAwwGVGFyZ2V0MIIBIjANBgkqhkiG9w0BAQEF
AAOCAQ8AMIIBCgKCAQEArUwLhI2Ff8XIUiFYgK/A+/D32/VuTgCHJHypXQAl6Mq2
hymYpoZiqNq8nEq3V3r3AZP1fPq6IDy0ewMdZEmk7wV6YZ5dV2MFg+BZtVDLmHJ3
JFCuzki9gK/NBjhYj5NuWmsrUYI3eTF2zv0/P+pBCMEcWdRnIi+XDtjBJseR+zjI
neK5LdMnLBjQCUGOtCTk3onZxTVBGDawwfD20bx6fn7CQtaoztyPXWsioxv+ZTA8
FRg4z4mATxrGwro6BgAZo6qre/KSU4wgFGpA33+KQxW5gP+f/knRkJtvGD/CNLaD
dShB/s+SdvJuYO3N5wlnwB5ywyE0Qn4UKaxT2KGyjQIDAQABo4HpMIHmMB0GA1Ud
DgQWBBSs2TIgPctt4cYQacVuEbn1lb/2EzAfBgNVHSMEGDAWgBSlFW+lRdFKhauC
7NuXWKpuQdFEpzA/BggrBgEFBQcBAQQzMDEwLwYIKwYBBQUHMAKGI2h0dHA6Ly91
cmwtZm9yLWFpYS9JbnRlcm1lZGlhdGUuY2VyMDQGA1UdHwQtMCswKaAnoCWGI2h0
dHA6Ly91cmwtZm9yLWNybC9JbnRlcm1lZGlhdGUuY3JsMA4GA1UdDwEB/wQEAwIF
oDAdBgNVHSUEFjAUBggrBgEFBQcDAQYIKwYBBQUHAwIwDQYJKoZIhvcNAQELBQAD
ggEBAJehEXD7qxWhbGe//+EIU/PFnHN+Sr+dTnq7ZXOoxB/pAsLjCVSznt9F4ALv
90pn4vLuOSiRuOJ0iNek+OkTK5BziXtUCRvwrPtLfKE61/QvS34qyfVLjvt3nmYO
WVc6svmoLJC4ryeIs288q+oUqewuVIAa7bE/CVTxEmvUxCMu5dJ9cRjQua0CxHW8
YFCuL25l/x0h8N1Wy1EVMOTqQMqa423pIY5dEe/km3Iaz6D/4/xEnzSDO+Si2OiZ
o4qN/3VQ7dQyt0kEYb6JUu1h5TKIcUNy/PcDpNzclrZwvABSCIym5f4SHZnUdr0e
UL8HT8r93XHU6+FC2IQ81YwG8ek=
-----END CERTIFICATE-----
