[Created by: ./generate-chains.py]

Single certificate chain for a serverAuth which does not contain the
issuer.

Certificate:
    Data:
        Version: 3 (0x2)
        Serial Number:
            35:12:6a:b0:cd:e2:f6:40:40:9a:22:3d:fe:27:08:3f:7d:71:7d:d1
        Signature Algorithm: sha256WithRSAEncryption
        Issuer: CN=Root
        Validity
            Not Before: Oct  5 12:00:00 2021 GMT
            Not After : Oct  5 12:00:00 2022 GMT
        Subject: CN=Target
        Subject Public Key Info:
            Public Key Algorithm: rsaEncryption
                Public-Key: (2048 bit)
                Modulus:
                    00:ea:e1:3e:63:76:66:4c:6b:31:4e:d4:83:fb:8b:
                    61:8e:aa:20:2f:55:00:64:d5:5b:b8:ed:4c:b2:a6:
                    49:67:98:e7:dd:db:9e:b3:7b:08:ec:35:04:6d:f8:
                    8b:7f:4d:e7:99:2c:b8:ad:a6:6a:fd:2e:10:86:7a:
                    0a:eb:ee:e4:63:fb:c9:36:4d:f9:46:e8:27:d3:15:
                    ee:ab:6e:23:2f:9e:f5:f0:ba:80:79:e0:1b:e3:61:
                    a8:39:a4:f5:56:b3:79:c1:bf:2a:dd:63:de:de:a0:
                    15:76:8b:aa:08:6d:4f:f7:7e:71:f6:2c:c6:28:7d:
                    70:6d:b1:d9:d3:66:7c:6c:a0:ab:48:d5:b3:d2:60:
                    52:3c:f9:c1:20:87:7f:8e:71:92:ab:36:a8:1f:8e:
                    1e:c6:0f:2e:f9:eb:3b:8a:bd:f4:b5:5e:6c:35:b9:
                    51:7d:69:bb:7d:81:ca:ab:de:74:00:69:1d:0f:9f:
                    4c:e3:31:e6:65:b1:ea:0c:b5:90:7b:13:7a:04:f3:
                    14:b7:6b:7c:6a:f8:67:dc:c0:a3:98:80:9f:e8:b3:
                    36:cb:8a:57:a4:a2:9f:71:8b:c7:44:6a:40:79:82:
                    ba:9f:b5:dd:9e:1d:bb:fe:6f:b0:1d:02:3d:54:a2:
                    64:e2:65:82:5e:56:48:d3:82:c9:2a:6d:53:f8:6a:
                    b3:81
                Exponent: 65537 (0x10001)
        X509v3 extensions:
            X509v3 Subject Key Identifier: 
                EA:12:3B:77:27:9D:E2:D9:81:4A:F2:DC:E5:05:D0:D9:4E:80:D8:49
            X509v3 Authority Key Identifier: 
                44:CB:96:F2:0A:48:4B:A1:7E:F1:D9:AB:0D:8F:E6:80:1C:CB:27:B0
            Authority Information Access: 
                CA Issuers - URI:http://url-for-aia/Root.cer
            X509v3 CRL Distribution Points: 
                Full Name:
                  URI:http://url-for-crl/Root.crl
            X509v3 Key Usage: critical
                Digital Signature, Key Encipherment
            X509v3 Extended Key Usage: 
                TLS Web Server Authentication
    Signature Algorithm: sha256WithRSAEncryption
    Signature Value:
        00:9a:8f:94:e0:66:d4:ac:54:6b:f0:ae:0b:31:1f:1a:00:11:
        42:35:3c:96:2f:c6:e1:6e:c1:7c:61:c9:c9:1d:51:79:ba:7b:
        c6:05:db:a2:04:2c:f0:b5:5a:74:0b:08:5f:18:77:f8:cc:9e:
        84:aa:5e:e6:28:3f:b7:c4:59:c8:34:6d:08:68:87:20:40:c7:
        39:8c:31:b0:10:50:ec:96:79:9b:f2:10:44:54:f5:c5:ea:07:
        e0:51:da:58:c5:f4:a4:ae:d7:1a:61:94:fc:cd:9d:9f:d3:f2:
        50:8e:6e:9e:d1:d0:52:68:79:74:a1:e1:47:40:1d:47:4f:b9:
        23:d9:7c:a8:bc:05:6d:54:c1:0c:e0:89:5b:35:10:ad:4f:8e:
        f7:9d:30:ac:ed:64:4c:36:9e:97:a3:1c:a3:92:c5:33:02:17:
        b2:d7:e9:d6:59:3a:20:d2:a7:c5:35:44:54:52:65:6e:7f:15:
        09:9d:0b:ef:95:ca:d9:fa:54:fc:a0:89:0b:59:c6:49:f9:8e:
        6e:e3:77:4d:4f:46:6b:90:2c:8b:1d:cb:f2:15:4a:d5:bf:2f:
        db:cb:24:0c:26:dc:c2:3a:04:e1:2d:7e:cc:a4:f9:36:bb:91:
        35:9d:0c:bb:46:86:4e:7c:a2:3c:3e:02:20:06:ad:eb:06:ee:
        43:c3:e7:a5
-----BEGIN CERTIFICATE-----
MIIDfjCCAmagAwIBAgIUNRJqsM3i9kBAmiI9/icIP31xfdEwDQYJKoZIhvcNAQEL
BQAwDzENMAsGA1UEAwwEUm9vdDAeFw0yMTEwMDUxMjAwMDBaFw0yMjEwMDUxMjAw
MDBaMBExDzANBgNVBAMMBlRhcmdldDCCASIwDQYJKoZIhvcNAQEBBQADggEPADCC
AQoCggEBAOrhPmN2ZkxrMU7Ug/uLYY6qIC9VAGTVW7jtTLKmSWeY593bnrN7COw1
BG34i39N55ksuK2mav0uEIZ6Cuvu5GP7yTZN+UboJ9MV7qtuIy+e9fC6gHngG+Nh
qDmk9VazecG/Kt1j3t6gFXaLqghtT/d+cfYsxih9cG2x2dNmfGygq0jVs9JgUjz5
wSCHf45xkqs2qB+OHsYPLvnrO4q99LVebDW5UX1pu32ByqvedABpHQ+fTOMx5mWx
6gy1kHsTegTzFLdrfGr4Z9zAo5iAn+izNsuKV6Sin3GLx0RqQHmCup+13Z4du/5v
sB0CPVSiZOJlgl5WSNOCySptU/hqs4ECAwEAAaOBzzCBzDAdBgNVHQ4EFgQU6hI7
dyed4tmBSvLc5QXQ2U6A2EkwHwYDVR0jBBgwFoAURMuW8gpIS6F+8dmrDY/mgBzL
J7AwNwYIKwYBBQUHAQEEKzApMCcGCCsGAQUFBzAChhtodHRwOi8vdXJsLWZvci1h
aWEvUm9vdC5jZXIwLAYDVR0fBCUwIzAhoB+gHYYbaHR0cDovL3VybC1mb3ItY3Js
L1Jvb3QuY3JsMA4GA1UdDwEB/wQEAwIFoDATBgNVHSUEDDAKBggrBgEFBQcDATAN
BgkqhkiG9w0BAQsFAAOCAQEAAJqPlOBm1KxUa/CuCzEfGgARQjU8li/G4W7BfGHJ
yR1Rebp7xgXbogQs8LVadAsIXxh3+MyehKpe5ig/t8RZyDRtCGiHIEDHOYwxsBBQ
7JZ5m/IQRFT1xeoH4FHaWMX0pK7XGmGU/M2dn9PyUI5untHQUmh5dKHhR0AdR0+5
I9l8qLwFbVTBDOCJWzUQrU+O950wrO1kTDael6Mco5LFMwIXstfp1lk6INKnxTVE
VFJlbn8VCZ0L75XK2fpU/KCJC1nGSfmObuN3TU9Ga5Asix3L8hVK1b8v28skDCbc
wjoE4S1+zKT5NruRNZ0Mu0aGTnyiPD4CIAat6wbuQ8PnpQ==
-----END CERTIFICATE-----
